
pub/gsl:     file format elf64-littleaarch64


Disassembly of section .text:

0000000004022e00 <_start>:
 4022e00:	14000002 	b	4022e08 <reset>
 4022e04:	d503201f 	nop

0000000004022e08 <reset>:
 4022e08:	58000e40 	ldr	x0, 4022fd0 <get_current_core+0x1c>
 4022e0c:	58000e21 	ldr	x1, 4022fd0 <get_current_core+0x1c>
 4022e10:	58000e02 	ldr	x2, 4022fd0 <get_current_core+0x1c>
 4022e14:	58000de3 	ldr	x3, 4022fd0 <get_current_core+0x1c>
 4022e18:	58000dc4 	ldr	x4, 4022fd0 <get_current_core+0x1c>
 4022e1c:	58000da5 	ldr	x5, 4022fd0 <get_current_core+0x1c>
 4022e20:	58000d86 	ldr	x6, 4022fd0 <get_current_core+0x1c>
 4022e24:	58000d67 	ldr	x7, 4022fd0 <get_current_core+0x1c>
 4022e28:	58000d48 	ldr	x8, 4022fd0 <get_current_core+0x1c>
 4022e2c:	58000d29 	ldr	x9, 4022fd0 <get_current_core+0x1c>
 4022e30:	58000d0a 	ldr	x10, 4022fd0 <get_current_core+0x1c>
 4022e34:	58000ceb 	ldr	x11, 4022fd0 <get_current_core+0x1c>
 4022e38:	58000ccc 	ldr	x12, 4022fd0 <get_current_core+0x1c>
 4022e3c:	58000cad 	ldr	x13, 4022fd0 <get_current_core+0x1c>
 4022e40:	58000c8e 	ldr	x14, 4022fd0 <get_current_core+0x1c>
 4022e44:	58000c6f 	ldr	x15, 4022fd0 <get_current_core+0x1c>
 4022e48:	58000c50 	ldr	x16, 4022fd0 <get_current_core+0x1c>
 4022e4c:	58000c31 	ldr	x17, 4022fd0 <get_current_core+0x1c>
 4022e50:	58000c12 	ldr	x18, 4022fd0 <get_current_core+0x1c>
 4022e54:	58000bf3 	ldr	x19, 4022fd0 <get_current_core+0x1c>
 4022e58:	58000bd4 	ldr	x20, 4022fd0 <get_current_core+0x1c>
 4022e5c:	58000bb5 	ldr	x21, 4022fd0 <get_current_core+0x1c>
 4022e60:	58000b96 	ldr	x22, 4022fd0 <get_current_core+0x1c>
 4022e64:	58000b77 	ldr	x23, 4022fd0 <get_current_core+0x1c>
 4022e68:	58000b58 	ldr	x24, 4022fd0 <get_current_core+0x1c>
 4022e6c:	58000b39 	ldr	x25, 4022fd0 <get_current_core+0x1c>
 4022e70:	58000b1a 	ldr	x26, 4022fd0 <get_current_core+0x1c>
 4022e74:	58000afb 	ldr	x27, 4022fd0 <get_current_core+0x1c>
 4022e78:	58000adc 	ldr	x28, 4022fd0 <get_current_core+0x1c>
 4022e7c:	58000abd 	ldr	x29, 4022fd0 <get_current_core+0x1c>
 4022e80:	58000a9e 	ldr	x30, 4022fd0 <get_current_core+0x1c>
 4022e84:	1005cbe0 	adr	x0, 402e800 <sync_exception_sp_el0>
 4022e88:	d51ec000 	msr	vbar_el3, x0
 4022e8c:	d53e1100 	mrs	x0, scr_el3
 4022e90:	b2400c00 	orr	x0, x0, #0xf
 4022e94:	d51e1100 	msr	scr_el3, x0
 4022e98:	d51e115f 	msr	cptr_el3, xzr
 4022e9c:	94000046 	bl	4022fb4 <get_current_core>
 4022ea0:	b5000200 	cbnz	x0, 4022ee0 <minor_core_boot>
 4022ea4:	580009a0 	ldr	x0, 4022fd8 <get_current_core+0x24>
 4022ea8:	d2800001 	mov	x1, #0x0                   	// #0
 4022eac:	580009a2 	ldr	x2, 4022fe0 <get_current_core+0x2c>
 4022eb0:	eb000042 	subs	x2, x2, x0
 4022eb4:	94002f94 	bl	402ed04 <clear_data>
 4022eb8:	58000940 	ldr	x0, 4022fe0 <get_current_core+0x2c>
 4022ebc:	927cec1f 	and	sp, x0, #0xfffffffffffffff0
 4022ec0:	58000940 	ldr	x0, 4022fe8 <get_current_core+0x34>
 4022ec4:	d2800001 	mov	x1, #0x0                   	// #0
 4022ec8:	58000942 	ldr	x2, 4022ff0 <get_current_core+0x3c>
 4022ecc:	eb000042 	subs	x2, x2, x0
 4022ed0:	94002f8d 	bl	402ed04 <clear_data>
 4022ed4:	94000456 	bl	402402c <stack_chk_guard_setup>
 4022ed8:	940004c7 	bl	40241f4 <sys_watchdog_enable>
 4022edc:	140004cb 	b	4024208 <main_entry>

0000000004022ee0 <minor_core_boot>:
 4022ee0:	58000401 	ldr	x1, 4022f60 <_jump_addr>
 4022ee4:	f9400037 	ldr	x23, [x1]
 4022ee8:	aa1703e0 	mov	x0, x23
 4022eec:	14000028 	b	4022f8c <switch_from_el3_to_el1>

0000000004022ef0 <non_tee_copy_begin>:
 4022ef0:	aa1503e0 	mov	x0, x21
 4022ef4:	aa1603e1 	mov	x1, x22
 4022ef8:	52800002 	mov	w2, #0x0                   	// #0
 4022efc:	d2800083 	mov	x3, #0x4                   	// #4

0000000004022f00 <do_code_clear_loop>:
 4022f00:	b9000002 	str	w2, [x0]
 4022f04:	8b030000 	add	x0, x0, x3
 4022f08:	eb01001f 	cmp	x0, x1
 4022f0c:	54ffffab 	b.lt	4022f00 <do_code_clear_loop>  // b.tstop
 4022f10:	14000002 	b	4022f18 <set_scs_finish>
 4022f14:	d503201f 	nop

0000000004022f18 <set_scs_finish>:
 4022f18:	58000203 	ldr	x3, 4022f58 <__REG_BASE_CA_MISC>
 4022f1c:	b9440061 	ldr	w1, [x3, #1024]
 4022f20:	121c6c21 	and	w1, w1, #0xfffffff0
 4022f24:	528000a2 	mov	w2, #0x5                   	// #5
 4022f28:	2a020021 	orr	w1, w1, w2
 4022f2c:	b9040061 	str	w1, [x3, #1024]

0000000004022f30 <excute_bootloader>:
 4022f30:	aa1703fe 	mov	x30, x23
 4022f34:	d65f03c0 	ret
 4022f38:	d503201f 	nop
 4022f3c:	d503201f 	nop
 4022f40:	d503201f 	nop
 4022f44:	d503201f 	nop
 4022f48:	d503201f 	nop
 4022f4c:	d503201f 	nop
 4022f50:	d503201f 	nop
 4022f54:	d503201f 	nop

0000000004022f58 <__REG_BASE_CA_MISC>:
 4022f58:	101e8000 	adr	x0, 405ff58 <_end+0x30758>
 4022f5c:	00000000 	udf	#0

0000000004022f60 <_jump_addr>:
 4022f60:	04021ab8 	.inst	0x04021ab8 ; undefined
 4022f64:	00000000 	udf	#0

0000000004022f68 <copy_code_to_sram>:
 4022f68:	8b020002 	add	x2, x0, x2

0000000004022f6c <copy_code_to_sram_loop>:
 4022f6c:	a8c12c0a 	ldp	x10, x11, [x0], #16
 4022f70:	a8812c2a 	stp	x10, x11, [x1], #16
 4022f74:	eb02001f 	cmp	x0, x2
 4022f78:	54ffffad 	b.le	4022f6c <copy_code_to_sram_loop>
 4022f7c:	d65f03c0 	ret

0000000004022f80 <_do_error>:
 4022f80:	580003c1 	ldr	x1, 4022ff8 <get_current_core+0x44>
 4022f84:	18000220 	ldr	w0, 4022fc8 <get_current_core+0x14>
 4022f88:	b9000420 	str	w0, [x1, #4]

0000000004022f8c <switch_from_el3_to_el1>:
 4022f8c:	580003a1 	ldr	x1, 4023000 <get_current_core+0x4c>
 4022f90:	d5181001 	msr	sctlr_el1, x1
 4022f94:	580003a1 	ldr	x1, 4023008 <get_current_core+0x54>
 4022f98:	d51c1101 	msr	hcr_el2, x1
 4022f9c:	580003a1 	ldr	x1, 4023010 <get_current_core+0x5c>
 4022fa0:	d51e1101 	msr	scr_el3, x1
 4022fa4:	580003a1 	ldr	x1, 4023018 <get_current_core+0x64>
 4022fa8:	d51e4001 	msr	spsr_el3, x1
 4022fac:	d51e4020 	msr	elr_el3, x0
 4022fb0:	d69f03e0 	eret

0000000004022fb4 <get_current_core>:
 4022fb4:	d53800a0 	mrs	x0, mpidr_el1
 4022fb8:	92401c01 	and	x1, x0, #0xff
 4022fbc:	92781c00 	and	x0, x0, #0xff00
 4022fc0:	8b402020 	add	x0, x1, x0, lsr #8
 4022fc4:	d65f03c0 	ret
 4022fc8:	00000001 	udf	#1
	...
 4022fd8:	04020000 	.inst	0x04020000 ; undefined
 4022fdc:	00000000 	udf	#0
 4022fe0:	04021000 	.inst	0x04021000 ; undefined
 4022fe4:	00000000 	udf	#0
 4022fe8:	04021a80 	.inst	0x04021a80 ; undefined
 4022fec:	00000000 	udf	#0
 4022ff0:	04021be0 	.inst	0x04021be0 ; undefined
 4022ff4:	00000000 	udf	#0
 4022ff8:	11020000 	add	w0, w0, #0x80
 4022ffc:	00000000 	udf	#0
 4023000:	30d00800 	adr	x0, 3fc3101 <hash_verify_buf-0x5e97f>
 4023004:	00000000 	udf	#0
 4023008:	80000000 	.inst	0x80000000 ; undefined
 402300c:	00000000 	udf	#0
 4023010:	00000401 	udf	#1025
 4023014:	00000000 	udf	#0
 4023018:	000003c5 	udf	#965
 402301c:	00000000 	udf	#0

0000000004023020 <clean_boot_img_addr_size>:
 4023020:	d2800280 	mov	x0, #0x14                  	// #20
 4023024:	f2a22240 	movk	x0, #0x1112, lsl #16
 4023028:	b900001f 	str	wzr, [x0]
 402302c:	b900041f 	str	wzr, [x0, #4]
 4023030:	d65f03c0 	ret

0000000004023034 <add_boot_img_size>:
 4023034:	d2800302 	mov	x2, #0x18                  	// #24
 4023038:	f2a22242 	movk	x2, #0x1112, lsl #16
 402303c:	b9400041 	ldr	w1, [x2]
 4023040:	0b000021 	add	w1, w1, w0
 4023044:	b9000041 	str	w1, [x2]
 4023048:	d65f03c0 	ret

000000000402304c <set_verify_backup_img_reg>:
 402304c:	d2800382 	mov	x2, #0x1c                  	// #28
 4023050:	f2a22242 	movk	x2, #0x1112, lsl #16
 4023054:	b9400041 	ldr	w1, [x2]
 4023058:	33180401 	bfi	w1, w0, #8, #2
 402305c:	b9000041 	str	w1, [x2]
 4023060:	d65f03c0 	ret

0000000004023064 <get_verify_backup_img_reg>:
 4023064:	d2800380 	mov	x0, #0x1c                  	// #28
 4023068:	f2a22240 	movk	x0, #0x1112, lsl #16
 402306c:	b9400000 	ldr	w0, [x0]
 4023070:	d3482400 	ubfx	x0, x0, #8, #2
 4023074:	d65f03c0 	ret

0000000004023078 <enable_lpds_lock>:
 4023078:	d2800580 	mov	x0, #0x2c                  	// #44
 402307c:	f2a22240 	movk	x0, #0x1112, lsl #16
 4023080:	b9400001 	ldr	w1, [x0]
 4023084:	32000021 	orr	w1, w1, #0x1
 4023088:	b9000001 	str	w1, [x0]
 402308c:	b9400000 	ldr	w0, [x0]
 4023090:	37000200 	tbnz	w0, #0, 40230d0 <enable_lpds_lock+0x58>
 4023094:	f81f0ffe 	str	x30, [sp, #-16]!
 4023098:	f0000040 	adrp	x0, 402e000 <ddrtrn_hal_set_dq_type+0xc>
 402309c:	913a5000 	add	x0, x0, #0xe94
 40230a0:	94001311 	bl	4027ce4 <log_serial_puts>
 40230a4:	d2800040 	mov	x0, #0x2                   	// #2
 40230a8:	9400132b 	bl	4027d54 <mdelay>
 40230ac:	9400131a 	bl	4027d14 <timer_deinit>
 40230b0:	d2800080 	mov	x0, #0x4                   	// #4
 40230b4:	52800021 	mov	w1, #0x1                   	// #1
 40230b8:	f2a22040 	movk	x0, #0x1102, lsl #16
 40230bc:	f84107fe 	ldr	x30, [sp], #16
 40230c0:	b9000001 	str	w1, [x0]
 40230c4:	b9000001 	str	w1, [x0]
 40230c8:	b9000001 	str	w1, [x0]
 40230cc:	d65f03c0 	ret
 40230d0:	d65f03c0 	ret

00000000040230d4 <set_low_power_mode>:
 40230d4:	d2800382 	mov	x2, #0x1c                  	// #28
 40230d8:	f2a22242 	movk	x2, #0x1112, lsl #16
 40230dc:	b9400041 	ldr	w1, [x2]
 40230e0:	33001c01 	bfxil	w1, w0, #0, #8
 40230e4:	b9000041 	str	w1, [x2]
 40230e8:	d65f03c0 	ret

00000000040230ec <get_low_power_mode>:
 40230ec:	d2800380 	mov	x0, #0x1c                  	// #28
 40230f0:	f2a22240 	movk	x0, #0x1112, lsl #16
 40230f4:	b9400000 	ldr	w0, [x0]
 40230f8:	12001c00 	and	w0, w0, #0xff
 40230fc:	d65f03c0 	ret

0000000004023100 <clear_lpds>:
 4023100:	d2800580 	mov	x0, #0x2c                  	// #44
 4023104:	f81f0ffe 	str	x30, [sp, #-16]!
 4023108:	f2a22240 	movk	x0, #0x1112, lsl #16
 402310c:	b9400000 	ldr	w0, [x0]
 4023110:	37000100 	tbnz	w0, #0, 4023130 <clear_lpds+0x30>
 4023114:	d2800600 	mov	x0, #0x30                  	// #48
 4023118:	d2802601 	mov	x1, #0x130                 	// #304
 402311c:	f2a22240 	movk	x0, #0x1112, lsl #16
 4023120:	f2a22241 	movk	x1, #0x1112, lsl #16
 4023124:	b800441f 	str	wzr, [x0], #4
 4023128:	eb01001f 	cmp	x0, x1
 402312c:	54ffffc1 	b.ne	4023124 <clear_lpds+0x24>  // b.any
 4023130:	52800000 	mov	w0, #0x0                   	// #0
 4023134:	97ffffe8 	bl	40230d4 <set_low_power_mode>
 4023138:	f84107fe 	ldr	x30, [sp], #16
 402313c:	f0000040 	adrp	x0, 402e000 <ddrtrn_hal_set_dq_type+0xc>
 4023140:	913ab400 	add	x0, x0, #0xead
 4023144:	140012e8 	b	4027ce4 <log_serial_puts>

0000000004023148 <lpds_hash_get>:
 4023148:	a9be53f3 	stp	x19, x20, [sp, #-32]!
 402314c:	2a0203e3 	mov	w3, w2
 4023150:	2a0103f4 	mov	w20, w1
 4023154:	aa0003f3 	mov	x19, x0
 4023158:	d2800004 	mov	x4, #0x0                   	// #0
 402315c:	52800002 	mov	w2, #0x0                   	// #0
 4023160:	d2800401 	mov	x1, #0x20                  	// #32
 4023164:	f9000bfe 	str	x30, [sp, #16]
 4023168:	94001313 	bl	4027db4 <memset_ss>
 402316c:	7102941f 	cmp	w0, #0xa5
 4023170:	54000161 	b.ne	402319c <lpds_hash_get+0x54>  // b.any
 4023174:	d2800002 	mov	x2, #0x0                   	// #0
 4023178:	0b020281 	add	w1, w20, w2
 402317c:	b9400021 	ldr	w1, [x1]
 4023180:	b8226a61 	str	w1, [x19, x2]
 4023184:	91001042 	add	x2, x2, #0x4
 4023188:	f100805f 	cmp	x2, #0x20
 402318c:	54ffff61 	b.ne	4023178 <lpds_hash_get+0x30>  // b.any
 4023190:	f9400bfe 	ldr	x30, [sp, #16]
 4023194:	a8c253f3 	ldp	x19, x20, [sp], #32
 4023198:	d65f03c0 	ret
 402319c:	52800b40 	mov	w0, #0x5a                  	// #90
 40231a0:	17fffffc 	b	4023190 <lpds_hash_get+0x48>

00000000040231a4 <verify_all_lpds_data>:
 40231a4:	d2800380 	mov	x0, #0x1c                  	// #28
 40231a8:	a9bf7bf3 	stp	x19, x30, [sp, #-16]!
 40231ac:	f2a22240 	movk	x0, #0x1112, lsl #16
 40231b0:	b9400013 	ldr	w19, [x0]
 40231b4:	12001e73 	and	w19, w19, #0xff
 40231b8:	71016a7f 	cmp	w19, #0x5a
 40231bc:	54000080 	b.eq	40231cc <verify_all_lpds_data+0x28>  // b.none
 40231c0:	528014a0 	mov	w0, #0xa5                  	// #165
 40231c4:	a8c17bf3 	ldp	x19, x30, [sp], #16
 40231c8:	d65f03c0 	ret
 40231cc:	d2800601 	mov	x1, #0x30                  	// #48
 40231d0:	52802200 	mov	w0, #0x110                 	// #272
 40231d4:	52801c02 	mov	w2, #0xe0                  	// #224
 40231d8:	f2a22241 	movk	x1, #0x1112, lsl #16
 40231dc:	72a22240 	movk	w0, #0x1112, lsl #16
 40231e0:	9400087e 	bl	40253d8 <lpds_hash_cmp>
 40231e4:	7102941f 	cmp	w0, #0xa5
 40231e8:	54fffec0 	b.eq	40231c0 <verify_all_lpds_data+0x1c>  // b.none
 40231ec:	52800d60 	mov	w0, #0x6b                  	// #107
 40231f0:	940003a2 	bl	4024078 <err_print>
 40231f4:	2a1303e0 	mov	w0, w19
 40231f8:	17fffff3 	b	40231c4 <verify_all_lpds_data+0x20>

00000000040231fc <calculate_all_lpds_data>:
 40231fc:	d2802202 	mov	x2, #0x110                 	// #272
 4023200:	52800600 	mov	w0, #0x30                  	// #48
 4023204:	52800004 	mov	w4, #0x0                   	// #0
 4023208:	52800403 	mov	w3, #0x20                  	// #32
 402320c:	f2a22242 	movk	x2, #0x1112, lsl #16
 4023210:	52801c01 	mov	w1, #0xe0                  	// #224
 4023214:	72a22240 	movk	w0, #0x1112, lsl #16
 4023218:	140000e2 	b	40235a0 <calc_hash>

000000000402321c <decrypt_data>:
 402321c:	d103c3ff 	sub	sp, sp, #0xf0
 4023220:	a90b53f3 	stp	x19, x20, [sp, #176]
 4023224:	aa0103f3 	mov	x19, x1
 4023228:	aa0303f4 	mov	x20, x3
 402322c:	a90c5bf5 	stp	x21, x22, [sp, #192]
 4023230:	2a0403f6 	mov	w22, w4
 4023234:	a90d63f7 	stp	x23, x24, [sp, #208]
 4023238:	aa0203f7 	mov	x23, x2
 402323c:	d2800002 	mov	x2, #0x0                   	// #0
 4023240:	a90e7bf9 	stp	x25, x30, [sp, #224]
 4023244:	2a0003f9 	mov	w25, w0
 4023248:	d0ffffe0 	adrp	x0, 4021000 <hash_verify_buf-0xa80>
 402324c:	f9455001 	ldr	x1, [x0, #2720]
 4023250:	f90057e1 	str	x1, [sp, #168]
 4023254:	d2800001 	mov	x1, #0x0                   	// #0
 4023258:	910023e0 	add	x0, sp, #0x8
 402325c:	910063e1 	add	x1, sp, #0x18
 4023260:	29037fff 	stp	wzr, wzr, [sp, #24]
 4023264:	940011dc 	bl	40279d4 <uapi_drv_cipher_create>
 4023268:	7102941f 	cmp	w0, #0xa5
 402326c:	54000160 	b.eq	4023298 <decrypt_data+0x7c>  // b.none
 4023270:	528008c0 	mov	w0, #0x46                  	// #70
 4023274:	52800b53 	mov	w19, #0x5a                  	// #90
 4023278:	94000380 	bl	4024078 <err_print>
 402327c:	d0ffffe0 	adrp	x0, 4021000 <hash_verify_buf-0xa80>
 4023280:	f94057e1 	ldr	x1, [sp, #168]
 4023284:	f9455002 	ldr	x2, [x0, #2720]
 4023288:	eb020021 	subs	x1, x1, x2
 402328c:	d2800002 	mov	x2, #0x0                   	// #0
 4023290:	540017a0 	b.eq	4023584 <decrypt_data+0x368>  // b.none
 4023294:	940003b6 	bl	402416c <__stack_chk_fail>
 4023298:	940011ff 	bl	4027a94 <uapi_drv_keyslot_init>
 402329c:	7102941f 	cmp	w0, #0xa5
 40232a0:	540000a0 	b.eq	40232b4 <decrypt_data+0x98>  // b.none
 40232a4:	f94007e0 	ldr	x0, [sp, #8]
 40232a8:	940011cf 	bl	40279e4 <uapi_drv_cipher_destroy>
 40232ac:	528008e0 	mov	w0, #0x47                  	// #71
 40232b0:	17fffff1 	b	4023274 <decrypt_data+0x58>
 40232b4:	910043e0 	add	x0, sp, #0x10
 40232b8:	52800001 	mov	w1, #0x0                   	// #0
 40232bc:	940011fe 	bl	4027ab4 <uapi_drv_keyslot_create>
 40232c0:	7102941f 	cmp	w0, #0xa5
 40232c4:	540000c0 	b.eq	40232dc <decrypt_data+0xc0>  // b.none
 40232c8:	940011f7 	bl	4027aa4 <uapi_drv_keyslot_deinit>
 40232cc:	f94007e0 	ldr	x0, [sp, #8]
 40232d0:	940011c5 	bl	40279e4 <uapi_drv_cipher_destroy>
 40232d4:	52800900 	mov	w0, #0x48                  	// #72
 40232d8:	17ffffe7 	b	4023274 <decrypt_data+0x58>
 40232dc:	a94087e0 	ldp	x0, x1, [sp, #8]
 40232e0:	d2800002 	mov	x2, #0x0                   	// #0
 40232e4:	940011cc 	bl	4027a14 <uapi_drv_cipher_attach>
 40232e8:	7102941f 	cmp	w0, #0xa5
 40232ec:	54000100 	b.eq	402330c <decrypt_data+0xf0>  // b.none
 40232f0:	940011ed 	bl	4027aa4 <uapi_drv_keyslot_deinit>
 40232f4:	f94007e0 	ldr	x0, [sp, #8]
 40232f8:	940011bb 	bl	40279e4 <uapi_drv_cipher_destroy>
 40232fc:	f9400be0 	ldr	x0, [sp, #16]
 4023300:	940011f1 	bl	4027ac4 <uapi_drv_keyslot_destroy>
 4023304:	52800920 	mov	w0, #0x49                  	// #73
 4023308:	17ffffdb 	b	4023274 <decrypt_data+0x58>
 402330c:	52800b40 	mov	w0, #0x5a                  	// #90
 4023310:	b90003e0 	str	w0, [sp]
 4023314:	d2a203c0 	mov	x0, #0x101e0000            	// #270401536
 4023318:	91009262 	add	x2, x19, #0x24
 402331c:	52800021 	mov	w1, #0x1                   	// #1
 4023320:	b9400000 	ldr	w0, [x0]
 4023324:	f94007f8 	ldr	x24, [sp, #8]
 4023328:	360003a0 	tbz	w0, #0, 402339c <decrypt_data+0x180>
 402332c:	52800040 	mov	w0, #0x2                   	// #2
 4023330:	b9005be0 	str	w0, [sp, #88]
 4023334:	9101c3e0 	add	x0, sp, #0x70
 4023338:	f90037e0 	str	x0, [sp, #104]
 402333c:	9101e3e0 	add	x0, sp, #0x78
 4023340:	290e07ff 	stp	wzr, w1, [sp, #112]
 4023344:	d2800203 	mov	x3, #0x10                  	// #16
 4023348:	d2800004 	mov	x4, #0x0                   	// #0
 402334c:	aa0303e1 	mov	x1, x3
 4023350:	94001295 	bl	4027da4 <memcpy_ss>
 4023354:	b90003e0 	str	w0, [sp]
 4023358:	b94003e0 	ldr	w0, [sp]
 402335c:	7102941f 	cmp	w0, #0xa5
 4023360:	540002e0 	b.eq	40233bc <decrypt_data+0x1a0>  // b.none
 4023364:	52800960 	mov	w0, #0x4b                  	// #75
 4023368:	52800b53 	mov	w19, #0x5a                  	// #90
 402336c:	94000343 	bl	4024078 <err_print>
 4023370:	528009a0 	mov	w0, #0x4d                  	// #77
 4023374:	94000341 	bl	4024078 <err_print>
 4023378:	a94087e0 	ldp	x0, x1, [sp, #8]
 402337c:	d2800002 	mov	x2, #0x0                   	// #0
 4023380:	940011a9 	bl	4027a24 <uapi_drv_cipher_detach>
 4023384:	f9400be0 	ldr	x0, [sp, #16]
 4023388:	940011cf 	bl	4027ac4 <uapi_drv_keyslot_destroy>
 402338c:	f94007e0 	ldr	x0, [sp, #8]
 4023390:	94001195 	bl	40279e4 <uapi_drv_cipher_destroy>
 4023394:	940011c4 	bl	4027aa4 <uapi_drv_keyslot_deinit>
 4023398:	17ffffb9 	b	402327c <decrypt_data+0x60>
 402339c:	52800060 	mov	w0, #0x3                   	// #3
 40233a0:	291207e0 	stp	w0, w1, [sp, #144]
 40233a4:	910223e0 	add	x0, sp, #0x88
 40233a8:	b9005be1 	str	w1, [sp, #88]
 40233ac:	f90037e0 	str	x0, [sp, #104]
 40233b0:	910263e0 	add	x0, sp, #0x98
 40233b4:	29117fe1 	stp	w1, wzr, [sp, #136]
 40233b8:	17ffffe3 	b	4023344 <decrypt_data+0x128>
 40233bc:	528000a0 	mov	w0, #0x5                   	// #5
 40233c0:	910163e1 	add	x1, sp, #0x58
 40233c4:	52800035 	mov	w21, #0x1                   	// #1
 40233c8:	d2800002 	mov	x2, #0x0                   	// #0
 40233cc:	290b83f5 	stp	w21, w0, [sp, #92]
 40233d0:	aa1803e0 	mov	x0, x24
 40233d4:	9400118c 	bl	4027a04 <uapi_drv_cipher_set_config>
 40233d8:	b90003e0 	str	w0, [sp]
 40233dc:	b94003e0 	ldr	w0, [sp]
 40233e0:	7102941f 	cmp	w0, #0xa5
 40233e4:	54000060 	b.eq	40233f0 <decrypt_data+0x1d4>  // b.none
 40233e8:	52800980 	mov	w0, #0x4c                  	// #76
 40233ec:	17ffffdf 	b	4023368 <decrypt_data+0x14c>
 40233f0:	52800b40 	mov	w0, #0x5a                  	// #90
 40233f4:	b90007e0 	str	w0, [sp, #4]
 40233f8:	d2a203c0 	mov	x0, #0x101e0000            	// #270401536
 40233fc:	52800402 	mov	w2, #0x20                  	// #32
 4023400:	52800041 	mov	w1, #0x2                   	// #2
 4023404:	b9400000 	ldr	w0, [x0]
 4023408:	790063f5 	strh	w21, [sp, #48]
 402340c:	72000000 	ands	w0, w0, #0x1
 4023410:	b90037f5 	str	w21, [sp, #52]
 4023414:	1a951021 	csel	w1, w1, w21, ne  // ne = any
 4023418:	52800a00 	mov	w0, #0x50                  	// #80
 402341c:	1a821000 	csel	w0, w0, w2, ne  // ne = any
 4023420:	91001262 	add	x2, x19, #0x4
 4023424:	290503f9 	stp	w25, w0, [sp, #40]
 4023428:	3200c3e0 	mov	w0, #0x1010101             	// #16843009
 402342c:	b9003be0 	str	w0, [sp, #56]
 4023430:	52800200 	mov	w0, #0x10                  	// #16
 4023434:	91005273 	add	x19, x19, #0x14
 4023438:	3900f3f5 	strb	w21, [sp, #60]
 402343c:	b90043e1 	str	w1, [sp, #64]
 4023440:	b90047e0 	str	w0, [sp, #68]
 4023444:	f90027f3 	str	x19, [sp, #72]
 4023448:	b90053ff 	str	wzr, [sp, #80]
 402344c:	290b07ff 	stp	wzr, w1, [sp, #88]
 4023450:	b90063e0 	str	w0, [sp, #96]
 4023454:	910083e0 	add	x0, sp, #0x20
 4023458:	f90037e2 	str	x2, [sp, #104]
 402345c:	f9400bf8 	ldr	x24, [sp, #16]
 4023460:	9400119d 	bl	4027ad4 <uapi_drv_klad_create>
 4023464:	7102941f 	cmp	w0, #0xa5
 4023468:	54000861 	b.ne	4023574 <decrypt_data+0x358>  // b.any
 402346c:	f94013e0 	ldr	x0, [sp, #32]
 4023470:	aa1803e2 	mov	x2, x24
 4023474:	d2800003 	mov	x3, #0x0                   	// #0
 4023478:	52800001 	mov	w1, #0x0                   	// #0
 402347c:	9400119e 	bl	4027af4 <uapi_drv_klad_attach>
 4023480:	7102941f 	cmp	w0, #0xa5
 4023484:	540003c1 	b.ne	40234fc <decrypt_data+0x2e0>  // b.any
 4023488:	f94013e0 	ldr	x0, [sp, #32]
 402348c:	9100a3e1 	add	x1, sp, #0x28
 4023490:	d2800002 	mov	x2, #0x0                   	// #0
 4023494:	940011a0 	bl	4027b14 <uapi_drv_klad_set_attr>
 4023498:	7102941f 	cmp	w0, #0xa5
 402349c:	540001e1 	b.ne	40234d8 <decrypt_data+0x2bc>  // b.any
 40234a0:	f94013e0 	ldr	x0, [sp, #32]
 40234a4:	910163e1 	add	x1, sp, #0x58
 40234a8:	d2800002 	mov	x2, #0x0                   	// #0
 40234ac:	9400119e 	bl	4027b24 <uapi_drv_klad_set_session_key>
 40234b0:	7102941f 	cmp	w0, #0xa5
 40234b4:	54000121 	b.ne	40234d8 <decrypt_data+0x2bc>  // b.any
 40234b8:	f94013e0 	ldr	x0, [sp, #32]
 40234bc:	910103e1 	add	x1, sp, #0x40
 40234c0:	d2800003 	mov	x3, #0x0                   	// #0
 40234c4:	52800002 	mov	w2, #0x0                   	// #0
 40234c8:	9400119b 	bl	4027b34 <uapi_drv_klad_set_content_key>
 40234cc:	7102941f 	cmp	w0, #0xa5
 40234d0:	54000041 	b.ne	40234d8 <decrypt_data+0x2bc>  // b.any
 40234d4:	b90007e0 	str	w0, [sp, #4]
 40234d8:	f94013e0 	ldr	x0, [sp, #32]
 40234dc:	aa1803e2 	mov	x2, x24
 40234e0:	d2800003 	mov	x3, #0x0                   	// #0
 40234e4:	52800001 	mov	w1, #0x0                   	// #0
 40234e8:	94001187 	bl	4027b04 <uapi_drv_klad_detach>
 40234ec:	7102941f 	cmp	w0, #0xa5
 40234f0:	54000060 	b.eq	40234fc <decrypt_data+0x2e0>  // b.none
 40234f4:	52800b40 	mov	w0, #0x5a                  	// #90
 40234f8:	b90007e0 	str	w0, [sp, #4]
 40234fc:	f94013e0 	ldr	x0, [sp, #32]
 4023500:	94001179 	bl	4027ae4 <uapi_drv_klad_destroy>
 4023504:	7102941f 	cmp	w0, #0xa5
 4023508:	54000361 	b.ne	4023574 <decrypt_data+0x358>  // b.any
 402350c:	b94007f3 	ldr	w19, [sp, #4]
 4023510:	7102967f 	cmp	w19, #0xa5
 4023514:	54000321 	b.ne	4023578 <decrypt_data+0x35c>  // b.any
 4023518:	52800020 	mov	w0, #0x1                   	// #1
 402351c:	b9004be0 	str	w0, [sp, #72]
 4023520:	b90063e0 	str	w0, [sp, #96]
 4023524:	92407e94 	and	x20, x20, #0xffffffff
 4023528:	f94007e0 	ldr	x0, [sp, #8]
 402352c:	2a1603e3 	mov	w3, w22
 4023530:	910163e2 	add	x2, sp, #0x58
 4023534:	910103e1 	add	x1, sp, #0x40
 4023538:	52800b55 	mov	w21, #0x5a                  	// #90
 402353c:	d2800005 	mov	x5, #0x0                   	// #0
 4023540:	52800004 	mov	w4, #0x0                   	// #0
 4023544:	b9002bf5 	str	w21, [sp, #40]
 4023548:	f90023f4 	str	x20, [sp, #64]
 402354c:	f9002ff7 	str	x23, [sp, #88]
 4023550:	94001139 	bl	4027a34 <uapi_drv_cipher_decrypt>
 4023554:	b9002be0 	str	w0, [sp, #40]
 4023558:	b9402bf3 	ldr	w19, [sp, #40]
 402355c:	7102967f 	cmp	w19, #0xa5
 4023560:	54fff0c0 	b.eq	4023378 <decrypt_data+0x15c>  // b.none
 4023564:	528009e0 	mov	w0, #0x4f                  	// #79
 4023568:	2a1503f3 	mov	w19, w21
 402356c:	940002c3 	bl	4024078 <err_print>
 4023570:	17ffff82 	b	4023378 <decrypt_data+0x15c>
 4023574:	52800b53 	mov	w19, #0x5a                  	// #90
 4023578:	528009c0 	mov	w0, #0x4e                  	// #78
 402357c:	940002bf 	bl	4024078 <err_print>
 4023580:	17ffff7e 	b	4023378 <decrypt_data+0x15c>
 4023584:	2a1303e0 	mov	w0, w19
 4023588:	a94b53f3 	ldp	x19, x20, [sp, #176]
 402358c:	a94c5bf5 	ldp	x21, x22, [sp, #192]
 4023590:	a94d63f7 	ldp	x23, x24, [sp, #208]
 4023594:	a94e7bf9 	ldp	x25, x30, [sp, #224]
 4023598:	9103c3ff 	add	sp, sp, #0xf0
 402359c:	d65f03c0 	ret

00000000040235a0 <calc_hash>:
 40235a0:	d10183ff 	sub	sp, sp, #0x60
 40235a4:	2a0003e0 	mov	w0, w0
 40235a8:	a90453f3 	stp	x19, x20, [sp, #64]
 40235ac:	2a0103f3 	mov	w19, w1
 40235b0:	d0ffffe1 	adrp	x1, 4021000 <hash_verify_buf-0xa80>
 40235b4:	a9057bf5 	stp	x21, x30, [sp, #80]
 40235b8:	aa0203f5 	mov	x21, x2
 40235bc:	52800b54 	mov	w20, #0x5a                  	// #90
 40235c0:	f9455022 	ldr	x2, [x1, #2720]
 40235c4:	f9001fe2 	str	x2, [sp, #56]
 40235c8:	d2800002 	mov	x2, #0x0                   	// #0
 40235cc:	d2a203c1 	mov	x1, #0x101e0000            	// #270401536
 40235d0:	b90007f4 	str	w20, [sp, #4]
 40235d4:	52800042 	mov	w2, #0x2                   	// #2
 40235d8:	b9400021 	ldr	w1, [x1]
 40235dc:	a90203ff 	stp	xzr, x0, [sp, #32]
 40235e0:	52800020 	mov	w0, #0x1                   	// #1
 40235e4:	f240003f 	tst	x1, #0x1
 40235e8:	52800201 	mov	w1, #0x10                  	// #16
 40235ec:	1a821021 	csel	w1, w1, w2, ne  // ne = any
 40235f0:	b90033e0 	str	w0, [sp, #48]
 40235f4:	52800400 	mov	w0, #0x20                  	// #32
 40235f8:	b9000bf4 	str	w20, [sp, #8]
 40235fc:	b9000fe0 	str	w0, [sp, #12]
 4023600:	910043e0 	add	x0, sp, #0x10
 4023604:	b9001be1 	str	w1, [sp, #24]
 4023608:	910063e1 	add	x1, sp, #0x18
 402360c:	ca010002 	eor	x2, x0, x1
 4023610:	b9000bf4 	str	w20, [sp, #8]
 4023614:	9400110c 	bl	4027a44 <uapi_drv_cipher_hash_init>
 4023618:	b9000be0 	str	w0, [sp, #8]
 402361c:	b9400be0 	ldr	w0, [sp, #8]
 4023620:	7102941f 	cmp	w0, #0xa5
 4023624:	54000160 	b.eq	4023650 <calc_hash+0xb0>  // b.none
 4023628:	b9400be0 	ldr	w0, [sp, #8]
 402362c:	d0ffffe1 	adrp	x1, 4021000 <hash_verify_buf-0xa80>
 4023630:	b90007e0 	str	w0, [sp, #4]
 4023634:	b94007e0 	ldr	w0, [sp, #4]
 4023638:	f9401fe2 	ldr	x2, [sp, #56]
 402363c:	f9455023 	ldr	x3, [x1, #2720]
 4023640:	eb030042 	subs	x2, x2, x3
 4023644:	d2800003 	mov	x3, #0x0                   	// #0
 4023648:	54000240 	b.eq	4023690 <calc_hash+0xf0>  // b.none
 402364c:	940002c8 	bl	402416c <__stack_chk_fail>
 4023650:	f9400be0 	ldr	x0, [sp, #16]
 4023654:	9100a3e1 	add	x1, sp, #0x28
 4023658:	2a1303e2 	mov	w2, w19
 402365c:	52800003 	mov	w3, #0x0                   	// #0
 4023660:	ca000024 	eor	x4, x1, x0
 4023664:	b9000bf4 	str	w20, [sp, #8]
 4023668:	ca020084 	eor	x4, x4, x2
 402366c:	2a1303e2 	mov	w2, w19
 4023670:	940010f9 	bl	4027a54 <uapi_drv_cipher_hash_update>
 4023674:	b9000be0 	str	w0, [sp, #8]
 4023678:	f9400be0 	ldr	x0, [sp, #16]
 402367c:	910033e2 	add	x2, sp, #0xc
 4023680:	aa1503e1 	mov	x1, x21
 4023684:	d2800003 	mov	x3, #0x0                   	// #0
 4023688:	940010f7 	bl	4027a64 <uapi_drv_cipher_hash_final>
 402368c:	17ffffe7 	b	4023628 <calc_hash+0x88>
 4023690:	a94453f3 	ldp	x19, x20, [sp, #64]
 4023694:	a9457bf5 	ldp	x21, x30, [sp, #80]
 4023698:	910183ff 	add	sp, sp, #0x60
 402369c:	d65f03c0 	ret

00000000040236a0 <store_hash_to_lpds>:
 40236a0:	f81e0ffe 	str	x30, [sp, #-32]!
 40236a4:	52800b41 	mov	w1, #0x5a                  	// #90
 40236a8:	d2800403 	mov	x3, #0x20                  	// #32
 40236ac:	d2800004 	mov	x4, #0x0                   	// #0
 40236b0:	b9001fe1 	str	w1, [sp, #28]
 40236b4:	d0ffffe2 	adrp	x2, 4021000 <hash_verify_buf-0xa80>
 40236b8:	912a0042 	add	x2, x2, #0xa80
 40236bc:	b9001fe1 	str	w1, [sp, #28]
 40236c0:	aa0303e1 	mov	x1, x3
 40236c4:	940011b8 	bl	4027da4 <memcpy_ss>
 40236c8:	b9001fe0 	str	w0, [sp, #28]
 40236cc:	b9401fe0 	ldr	w0, [sp, #28]
 40236d0:	7102941f 	cmp	w0, #0xa5
 40236d4:	54000180 	b.eq	4023704 <store_hash_to_lpds+0x64>  // b.none
 40236d8:	52800ce0 	mov	w0, #0x67                  	// #103
 40236dc:	94000267 	bl	4024078 <err_print>
 40236e0:	d2800040 	mov	x0, #0x2                   	// #2
 40236e4:	9400119c 	bl	4027d54 <mdelay>
 40236e8:	9400118b 	bl	4027d14 <timer_deinit>
 40236ec:	d2800080 	mov	x0, #0x4                   	// #4
 40236f0:	52800021 	mov	w1, #0x1                   	// #1
 40236f4:	f2a22040 	movk	x0, #0x1102, lsl #16
 40236f8:	b9000001 	str	w1, [x0]
 40236fc:	b9000001 	str	w1, [x0]
 4023700:	b9000001 	str	w1, [x0]
 4023704:	f84207fe 	ldr	x30, [sp], #32
 4023708:	d65f03c0 	ret

000000000402370c <verify_signature>:
 402370c:	d10403ff 	sub	sp, sp, #0x100
 4023710:	a90c53f3 	stp	x19, x20, [sp, #192]
 4023714:	aa0003f3 	mov	x19, x0
 4023718:	d0ffffe0 	adrp	x0, 4021000 <hash_verify_buf-0xa80>
 402371c:	a90d5bf5 	stp	x21, x22, [sp, #208]
 4023720:	aa0103f6 	mov	x22, x1
 4023724:	a90e63f7 	stp	x23, x24, [sp, #224]
 4023728:	f9007bfe 	str	x30, [sp, #240]
 402372c:	f9455001 	ldr	x1, [x0, #2720]
 4023730:	f9005fe1 	str	x1, [sp, #184]
 4023734:	d2800001 	mov	x1, #0x0                   	// #0
 4023738:	b5000123 	cbnz	x3, 402375c <verify_signature+0x50>
 402373c:	52800b53 	mov	w19, #0x5a                  	// #90
 4023740:	d0ffffe0 	adrp	x0, 4021000 <hash_verify_buf-0xa80>
 4023744:	f9405fe1 	ldr	x1, [sp, #184]
 4023748:	f9455002 	ldr	x2, [x0, #2720]
 402374c:	eb020021 	subs	x1, x1, x2
 4023750:	d2800002 	mov	x2, #0x0                   	// #0
 4023754:	54000ca0 	b.eq	40238e8 <verify_signature+0x1dc>  // b.none
 4023758:	94000285 	bl	402416c <__stack_chk_fail>
 402375c:	f9400460 	ldr	x0, [x3, #8]
 4023760:	aa0303f4 	mov	x20, x3
 4023764:	b4fffec0 	cbz	x0, 402373c <verify_signature+0x30>
 4023768:	b9400075 	ldr	w21, [x3]
 402376c:	710082bf 	cmp	w21, #0x20
 4023770:	54fffe61 	b.ne	402373c <verify_signature+0x30>  // b.any
 4023774:	b4fffe53 	cbz	x19, 402373c <verify_signature+0x30>
 4023778:	9101e3f7 	add	x23, sp, #0x78
 402377c:	aa0203f8 	mov	x24, x2
 4023780:	d2800403 	mov	x3, #0x20                  	// #32
 4023784:	aa1703e0 	mov	x0, x23
 4023788:	aa0303e1 	mov	x1, x3
 402378c:	d2800004 	mov	x4, #0x0                   	// #0
 4023790:	52800b42 	mov	w2, #0x5a                  	// #90
 4023794:	94001188 	bl	4027db4 <memset_ss>
 4023798:	7102941f 	cmp	w0, #0xa5
 402379c:	54fffd01 	b.ne	402373c <verify_signature+0x30>  // b.any
 40237a0:	b9400283 	ldr	w3, [x20]
 40237a4:	d2800004 	mov	x4, #0x0                   	// #0
 40237a8:	f9400680 	ldr	x0, [x20, #8]
 40237ac:	aa0303e1 	mov	x1, x3
 40237b0:	12800b42 	mov	w2, #0xffffffa5            	// #-91
 40237b4:	94001180 	bl	4027db4 <memset_ss>
 40237b8:	7102941f 	cmp	w0, #0xa5
 40237bc:	54fffc01 	b.ne	402373c <verify_signature+0x30>  // b.any
 40237c0:	d2a203c0 	mov	x0, #0x101e0000            	// #270401536
 40237c4:	b90003f5 	str	w21, [sp]
 40237c8:	b9400000 	ldr	w0, [x0]
 40237cc:	360004a0 	tbz	w0, #0, 4023860 <verify_signature+0x154>
 40237d0:	910263e0 	add	x0, sp, #0x98
 40237d4:	f90007e0 	str	x0, [sp, #8]
 40237d8:	f0000040 	adrp	x0, 402e000 <ddrtrn_hal_set_dq_type+0xc>
 40237dc:	913af400 	add	x0, x0, #0xebd
 40237e0:	f9000fe0 	str	x0, [sp, #24]
 40237e4:	52800200 	mov	w0, #0x10                  	// #16
 40237e8:	b90013e0 	str	w0, [sp, #16]
 40237ec:	52800080 	mov	w0, #0x4                   	// #4
 40237f0:	b9400261 	ldr	w1, [x19]
 40237f4:	910003e3 	mov	x3, sp
 40237f8:	b90073e0 	str	w0, [sp, #112]
 40237fc:	52800020 	mov	w0, #0x1                   	// #1
 4023800:	f9400662 	ldr	x2, [x19, #8]
 4023804:	d2800004 	mov	x4, #0x0                   	// #0
 4023808:	b90023e1 	str	w1, [sp, #32]
 402380c:	aa1603e1 	mov	x1, x22
 4023810:	f90017e2 	str	x2, [sp, #40]
 4023814:	910083e2 	add	x2, sp, #0x20
 4023818:	b90033e0 	str	w0, [sp, #48]
 402381c:	910043e0 	add	x0, sp, #0x10
 4023820:	940010e9 	bl	4027bc4 <uapi_drv_pke_sm2_dsa_hash>
 4023824:	7102941f 	cmp	w0, #0xa5
 4023828:	54fff8a1 	b.ne	402373c <verify_signature+0x30>  // b.any
 402382c:	9100e3f5 	add	x21, sp, #0x38
 4023830:	b9400261 	ldr	w1, [x19]
 4023834:	aa1703e2 	mov	x2, x23
 4023838:	b9400a60 	ldr	w0, [x19, #8]
 402383c:	52800004 	mov	w4, #0x0                   	// #0
 4023840:	52800403 	mov	w3, #0x20                  	// #32
 4023844:	97ffff57 	bl	40235a0 <calc_hash>
 4023848:	2a0003f3 	mov	w19, w0
 402384c:	7102941f 	cmp	w0, #0xa5
 4023850:	54000100 	b.eq	4023870 <verify_signature+0x164>  // b.none
 4023854:	52800a40 	mov	w0, #0x52                  	// #82
 4023858:	94000208 	bl	4024078 <err_print>
 402385c:	17ffffb9 	b	4023740 <verify_signature+0x34>
 4023860:	f0000055 	adrp	x21, 402e000 <ddrtrn_hal_set_dq_type+0xc>
 4023864:	913542b5 	add	x21, x21, #0xd50
 4023868:	f90007f7 	str	x23, [sp, #8]
 402386c:	17fffff1 	b	4023830 <verify_signature+0x124>
 4023870:	d0fffff3 	adrp	x19, 4021000 <hash_verify_buf-0xa80>
 4023874:	912a0273 	add	x19, x19, #0xa80
 4023878:	d2800403 	mov	x3, #0x20                  	// #32
 402387c:	aa1303e0 	mov	x0, x19
 4023880:	aa0303e1 	mov	x1, x3
 4023884:	d2800004 	mov	x4, #0x0                   	// #0
 4023888:	52800002 	mov	w2, #0x0                   	// #0
 402388c:	9400114a 	bl	4027db4 <memset_ss>
 4023890:	7102941f 	cmp	w0, #0xa5
 4023894:	54fff541 	b.ne	402373c <verify_signature+0x30>  // b.any
 4023898:	d2800403 	mov	x3, #0x20                  	// #32
 402389c:	aa1703e2 	mov	x2, x23
 40238a0:	aa0303e1 	mov	x1, x3
 40238a4:	aa1303e0 	mov	x0, x19
 40238a8:	d2800004 	mov	x4, #0x0                   	// #0
 40238ac:	9400113e 	bl	4027da4 <memcpy_ss>
 40238b0:	7102941f 	cmp	w0, #0xa5
 40238b4:	54fff441 	b.ne	402373c <verify_signature+0x30>  // b.any
 40238b8:	f9400684 	ldr	x4, [x20, #8]
 40238bc:	aa1803e3 	mov	x3, x24
 40238c0:	910003e2 	mov	x2, sp
 40238c4:	aa1603e1 	mov	x1, x22
 40238c8:	aa1503e0 	mov	x0, x21
 40238cc:	d2800005 	mov	x5, #0x0                   	// #0
 40238d0:	940010b9 	bl	4027bb4 <uapi_drv_pke_ecdsa_verify>
 40238d4:	2a0003f3 	mov	w19, w0
 40238d8:	7102941f 	cmp	w0, #0xa5
 40238dc:	54fff320 	b.eq	4023740 <verify_signature+0x34>  // b.none
 40238e0:	52800a60 	mov	w0, #0x53                  	// #83
 40238e4:	17ffffdd 	b	4023858 <verify_signature+0x14c>
 40238e8:	2a1303e0 	mov	w0, w19
 40238ec:	a94c53f3 	ldp	x19, x20, [sp, #192]
 40238f0:	a94d5bf5 	ldp	x21, x22, [sp, #208]
 40238f4:	a94e63f7 	ldp	x23, x24, [sp, #224]
 40238f8:	f9407bfe 	ldr	x30, [sp, #240]
 40238fc:	910403ff 	add	sp, sp, #0x100
 4023900:	d65f03c0 	ret

0000000004023904 <dma_copy>:
 4023904:	d10103ff 	sub	sp, sp, #0x40
 4023908:	d0ffffe3 	adrp	x3, 4021000 <hash_verify_buf-0xa80>
 402390c:	f9001bfe 	str	x30, [sp, #48]
 4023910:	f9455064 	ldr	x4, [x3, #2720]
 4023914:	f90017e4 	str	x4, [sp, #40]
 4023918:	d2800004 	mov	x4, #0x0                   	// #0
 402391c:	f90007e0 	str	x0, [sp, #8]
 4023920:	52800020 	mov	w0, #0x1                   	// #1
 4023924:	d2800003 	mov	x3, #0x0                   	// #0
 4023928:	b90013e0 	str	w0, [sp, #16]
 402392c:	f9000fe2 	str	x2, [sp, #24]
 4023930:	2a0103e2 	mov	w2, w1
 4023934:	910063e1 	add	x1, sp, #0x18
 4023938:	b90023e0 	str	w0, [sp, #32]
 402393c:	910023e0 	add	x0, sp, #0x8
 4023940:	9400102d 	bl	40279f4 <uapi_drv_cipher_dma_copy>
 4023944:	d0ffffe1 	adrp	x1, 4021000 <hash_verify_buf-0xa80>
 4023948:	f94017e2 	ldr	x2, [sp, #40]
 402394c:	f9455023 	ldr	x3, [x1, #2720]
 4023950:	eb030042 	subs	x2, x2, x3
 4023954:	d2800003 	mov	x3, #0x0                   	// #0
 4023958:	54000040 	b.eq	4023960 <dma_copy+0x5c>  // b.none
 402395c:	94000204 	bl	402416c <__stack_chk_fail>
 4023960:	f9401bfe 	ldr	x30, [sp, #48]
 4023964:	910103ff 	add	sp, sp, #0x40
 4023968:	d65f03c0 	ret

000000000402396c <build_board_type_frame>:
 402396c:	f100003f 	cmp	x1, #0x0
 4023970:	7a4a1840 	ccmp	w2, #0xa, #0x0, ne  // ne = any
 4023974:	54000469 	b.ls	4023a00 <build_board_type_frame+0x94>  // b.plast
 4023978:	a9be53f3 	stp	x19, x20, [sp, #-32]!
 402397c:	aa0103f3 	mov	x19, x1
 4023980:	12800621 	mov	w1, #0xffffffce            	// #-50
 4023984:	f9000bfe 	str	x30, [sp, #16]
 4023988:	d2800014 	mov	x20, #0x0                   	// #0
 402398c:	39000261 	strb	w1, [x19]
 4023990:	52800021 	mov	w1, #0x1                   	// #1
 4023994:	39000661 	strb	w1, [x19, #1]
 4023998:	52800081 	mov	w1, #0x4                   	// #4
 402399c:	39000e61 	strb	w1, [x19, #3]
 40239a0:	53187c01 	lsr	w1, w0, #24
 40239a4:	39001261 	strb	w1, [x19, #4]
 40239a8:	53107c01 	lsr	w1, w0, #16
 40239ac:	39001661 	strb	w1, [x19, #5]
 40239b0:	53087c01 	lsr	w1, w0, #8
 40239b4:	39000a7f 	strb	wzr, [x19, #2]
 40239b8:	39001a61 	strb	w1, [x19, #6]
 40239bc:	52800001 	mov	w1, #0x0                   	// #0
 40239c0:	39001e60 	strb	w0, [x19, #7]
 40239c4:	38746a60 	ldrb	w0, [x19, x20]
 40239c8:	91000694 	add	x20, x20, #0x1
 40239cc:	940009eb 	bl	4026178 <cal_crc_perbyte>
 40239d0:	12003c01 	and	w1, w0, #0xffff
 40239d4:	f100229f 	cmp	x20, #0x8
 40239d8:	54ffff61 	b.ne	40239c4 <build_board_type_frame+0x58>  // b.any
 40239dc:	53087c20 	lsr	w0, w1, #8
 40239e0:	39002260 	strb	w0, [x19, #8]
 40239e4:	12800aa0 	mov	w0, #0xffffffaa            	// #-86
 40239e8:	39002661 	strb	w1, [x19, #9]
 40239ec:	39002a60 	strb	w0, [x19, #10]
 40239f0:	528014a0 	mov	w0, #0xa5                  	// #165
 40239f4:	f9400bfe 	ldr	x30, [sp, #16]
 40239f8:	a8c253f3 	ldp	x19, x20, [sp], #32
 40239fc:	d65f03c0 	ret
 4023a00:	52800b40 	mov	w0, #0x5a                  	// #90
 4023a04:	d65f03c0 	ret

0000000004023a08 <get_board_param_index>:
 4023a08:	d2800300 	mov	x0, #0x18                  	// #24
 4023a0c:	a9bf7bf3 	stp	x19, x30, [sp, #-16]!
 4023a10:	f2a22040 	movk	x0, #0x1102, lsl #16
 4023a14:	b9400013 	ldr	w19, [x0]
 4023a18:	f0000040 	adrp	x0, 402e000 <ddrtrn_hal_set_dq_type+0xc>
 4023a1c:	913b3800 	add	x0, x0, #0xece
 4023a20:	940010b1 	bl	4027ce4 <log_serial_puts>
 4023a24:	d35b7673 	ubfx	x19, x19, #27, #3
 4023a28:	2a1303e0 	mov	w0, w19
 4023a2c:	94000f08 	bl	402764c <serial_put_hex>
 4023a30:	2a1303e0 	mov	w0, w19
 4023a34:	a8c17bf3 	ldp	x19, x30, [sp], #16
 4023a38:	d65f03c0 	ret

0000000004023a3c <get_first_param_data_flash_offset>:
 4023a3c:	f81f0ffe 	str	x30, [sp, #-16]!
 4023a40:	9400059a 	bl	40250a8 <get_gsl_code_area_len>
 4023a44:	52830001 	mov	w1, #0x1800                	// #6144
 4023a48:	0b010000 	add	w0, w0, w1
 4023a4c:	f84107fe 	ldr	x30, [sp], #16
 4023a50:	d65f03c0 	ret

0000000004023a54 <get_uboot_info_flash_offset>:
 4023a54:	a9be53f3 	stp	x19, x20, [sp, #-32]!
 4023a58:	f9000bfe 	str	x30, [sp, #16]
 4023a5c:	940006f6 	bl	4025634 <get_ddr_param_len>
 4023a60:	2a0003f4 	mov	w20, w0
 4023a64:	94000705 	bl	4025678 <get_ddr_param_cnt>
 4023a68:	2a0003f3 	mov	w19, w0
 4023a6c:	97fffff4 	bl	4023a3c <get_first_param_data_flash_offset>
 4023a70:	f9400bfe 	ldr	x30, [sp, #16]
 4023a74:	1b130280 	madd	w0, w20, w19, w0
 4023a78:	a8c253f3 	ldp	x19, x20, [sp], #32
 4023a7c:	d65f03c0 	ret

0000000004023a80 <get_ree_key_and_paras_info_from_device>:
 4023a80:	a9bd53f3 	stp	x19, x20, [sp, #-48]!
 4023a84:	a9015bf5 	stp	x21, x22, [sp, #16]
 4023a88:	2a0103f5 	mov	w21, w1
 4023a8c:	aa0003f6 	mov	x22, x0
 4023a90:	f90013fe 	str	x30, [sp, #32]
 4023a94:	94000597 	bl	40250f0 <get_ree_key_area_addr>
 4023a98:	2a0003f3 	mov	w19, w0
 4023a9c:	94000583 	bl	40250a8 <get_gsl_code_area_len>
 4023aa0:	52828001 	mov	w1, #0x1400                	// #5120
 4023aa4:	0b010014 	add	w20, w0, w1
 4023aa8:	52896f00 	mov	w0, #0x4b78                	// #19320
 4023aac:	72b2d4a0 	movk	w0, #0x96a5, lsl #16
 4023ab0:	6b0002bf 	cmp	w21, w0
 4023ab4:	54000161 	b.ne	4023ae0 <get_ree_key_and_paras_info_from_device+0x60>  // b.any
 4023ab8:	b9400ac2 	ldr	w2, [x22, #8]
 4023abc:	52a1e000 	mov	w0, #0xf000000             	// #251658240
 4023ac0:	a9415bf5 	ldp	x21, x22, [sp, #16]
 4023ac4:	0b000042 	add	w2, w2, w0
 4023ac8:	0b140042 	add	w2, w2, w20
 4023acc:	2a1303e0 	mov	w0, w19
 4023ad0:	f94013fe 	ldr	x30, [sp, #32]
 4023ad4:	52808001 	mov	w1, #0x400                 	// #1024
 4023ad8:	a8c353f3 	ldp	x19, x20, [sp], #48
 4023adc:	17ffff8a 	b	4023904 <dma_copy>
 4023ae0:	529690e0 	mov	w0, #0xb487                	// #46215
 4023ae4:	72ad2b40 	movk	w0, #0x695a, lsl #16
 4023ae8:	6b0002bf 	cmp	w21, w0
 4023aec:	54000141 	b.ne	4023b14 <get_ree_key_and_paras_info_from_device+0x94>  // b.any
 4023af0:	b9400ac1 	ldr	w1, [x22, #8]
 4023af4:	2a1303e0 	mov	w0, w19
 4023af8:	a9415bf5 	ldp	x21, x22, [sp, #16]
 4023afc:	0b010281 	add	w1, w20, w1
 4023b00:	f94013fe 	ldr	x30, [sp, #32]
 4023b04:	d2800023 	mov	x3, #0x1                   	// #1
 4023b08:	a8c353f3 	ldp	x19, x20, [sp], #48
 4023b0c:	d2808002 	mov	x2, #0x400                 	// #1024
 4023b10:	14001039 	b	4027bf4 <mmc_read>
 4023b14:	528970e0 	mov	w0, #0x4b87                	// #19335
 4023b18:	72ad34a0 	movk	w0, #0x69a5, lsl #16
 4023b1c:	6b0002bf 	cmp	w21, w0
 4023b20:	540000a1 	b.ne	4023b34 <get_ree_key_and_paras_info_from_device+0xb4>  // b.any
 4023b24:	940010b4 	bl	4027df4 <self_sdio_check>
 4023b28:	350000a0 	cbnz	w0, 4023b3c <get_ree_key_and_paras_info_from_device+0xbc>
 4023b2c:	52800800 	mov	w0, #0x40                  	// #64
 4023b30:	94000152 	bl	4024078 <err_print>
 4023b34:	52800b40 	mov	w0, #0x5a                  	// #90
 4023b38:	14000008 	b	4023b58 <get_ree_key_and_paras_info_from_device+0xd8>
 4023b3c:	94001046 	bl	4027c54 <enable_sdio_dma>
 4023b40:	2a1403e0 	mov	w0, w20
 4023b44:	94001040 	bl	4027c44 <set_sdio_pos>
 4023b48:	2a1303e0 	mov	w0, w19
 4023b4c:	d2808001 	mov	x1, #0x400                 	// #1024
 4023b50:	94001039 	bl	4027c34 <copy_from_sdio>
 4023b54:	528014a0 	mov	w0, #0xa5                  	// #165
 4023b58:	a9415bf5 	ldp	x21, x22, [sp, #16]
 4023b5c:	f94013fe 	ldr	x30, [sp, #32]
 4023b60:	a8c353f3 	ldp	x19, x20, [sp], #48
 4023b64:	d65f03c0 	ret

0000000004023b68 <get_paras_data_from_flash>:
 4023b68:	a9b953f3 	stp	x19, x20, [sp, #-112]!
 4023b6c:	2a0203f4 	mov	w20, w2
 4023b70:	a9015bf5 	stp	x21, x22, [sp, #16]
 4023b74:	aa0003f5 	mov	x21, x0
 4023b78:	a90263f7 	stp	x23, x24, [sp, #32]
 4023b7c:	2a0103f7 	mov	w23, w1
 4023b80:	a9036bf9 	stp	x25, x26, [sp, #48]
 4023b84:	a90473fb 	stp	x27, x28, [sp, #64]
 4023b88:	f9002bfe 	str	x30, [sp, #80]
 4023b8c:	940006aa 	bl	4025634 <get_ddr_param_len>
 4023b90:	2a0003fb 	mov	w27, w0
 4023b94:	94000561 	bl	4025118 <get_ddr_param_data_addr>
 4023b98:	2a0003f8 	mov	w24, w0
 4023b9c:	940006a6 	bl	4025634 <get_ddr_param_len>
 4023ba0:	2a0003fc 	mov	w28, w0
 4023ba4:	94000558 	bl	4025104 <get_ddr_param_info_addr>
 4023ba8:	2a0003f6 	mov	w22, w0
 4023bac:	97ffffa4 	bl	4023a3c <get_first_param_data_flash_offset>
 4023bb0:	8b3642f6 	add	x22, x23, w22, uxtw
 4023bb4:	3944b2d3 	ldrb	w19, [x22, #300]
 4023bb8:	1b1c027c 	madd	w28, w19, w28, w0
 4023bbc:	52896f00 	mov	w0, #0x4b78                	// #19320
 4023bc0:	72b2d4a0 	movk	w0, #0x96a5, lsl #16
 4023bc4:	6b00029f 	cmp	w20, w0
 4023bc8:	540001c1 	b.ne	4023c00 <get_paras_data_from_flash+0x98>  // b.any
 4023bcc:	b9400aa2 	ldr	w2, [x21, #8]
 4023bd0:	52a1e000 	mov	w0, #0xf000000             	// #251658240
 4023bd4:	2a1b03e1 	mov	w1, w27
 4023bd8:	0b000042 	add	w2, w2, w0
 4023bdc:	2a1803e0 	mov	w0, w24
 4023be0:	0b1c0042 	add	w2, w2, w28
 4023be4:	a9415bf5 	ldp	x21, x22, [sp, #16]
 4023be8:	a94263f7 	ldp	x23, x24, [sp, #32]
 4023bec:	a9436bf9 	ldp	x25, x26, [sp, #48]
 4023bf0:	a94473fb 	ldp	x27, x28, [sp, #64]
 4023bf4:	f9402bfe 	ldr	x30, [sp, #80]
 4023bf8:	a8c753f3 	ldp	x19, x20, [sp], #112
 4023bfc:	17ffff42 	b	4023904 <dma_copy>
 4023c00:	529690e0 	mov	w0, #0xb487                	// #46215
 4023c04:	72ad2b40 	movk	w0, #0x695a, lsl #16
 4023c08:	6b00029f 	cmp	w20, w0
 4023c0c:	54000961 	b.ne	4023d38 <get_paras_data_from_flash+0x1d0>  // b.any
 4023c10:	b9400ab4 	ldr	w20, [x21, #8]
 4023c14:	97ffff8a 	bl	4023a3c <get_first_param_data_flash_offset>
 4023c18:	b9400aa2 	ldr	w2, [x21, #8]
 4023c1c:	2a0003f3 	mov	w19, w0
 4023c20:	b9006be2 	str	w2, [sp, #104]
 4023c24:	94000695 	bl	4025678 <get_ddr_param_cnt>
 4023c28:	2a0003f5 	mov	w21, w0
 4023c2c:	94000682 	bl	4025634 <get_ddr_param_len>
 4023c30:	2a0003f6 	mov	w22, w0
 4023c34:	94000534 	bl	4025104 <get_ddr_param_info_addr>
 4023c38:	0b160319 	add	w25, w24, w22
 4023c3c:	2a0003fa 	mov	w26, w0
 4023c40:	94000ff5 	bl	4027c14 <mmc_get_cur_mode>
 4023c44:	71016c1f 	cmp	w0, #0x5b
 4023c48:	54000420 	b.eq	4023ccc <get_paras_data_from_flash+0x164>  // b.none
 4023c4c:	b9406be2 	ldr	w2, [sp, #104]
 4023c50:	0b1c0053 	add	w19, w2, w28
 4023c54:	2a1803e0 	mov	w0, w24
 4023c58:	2a1b03e2 	mov	w2, w27
 4023c5c:	2a1303e1 	mov	w1, w19
 4023c60:	d2800023 	mov	x3, #0x1                   	// #1
 4023c64:	94000fe4 	bl	4027bf4 <mmc_read>
 4023c68:	2a0003f8 	mov	w24, w0
 4023c6c:	7102941f 	cmp	w0, #0xa5
 4023c70:	540004c1 	b.ne	4023d08 <get_paras_data_from_flash+0x1a0>  // b.any
 4023c74:	94000fe8 	bl	4027c14 <mmc_get_cur_mode>
 4023c78:	71016c1f 	cmp	w0, #0x5b
 4023c7c:	54000481 	b.ne	4023d0c <get_paras_data_from_flash+0x1a4>  // b.any
 4023c80:	8b170357 	add	x23, x26, x23
 4023c84:	510006b4 	sub	w20, w21, #0x1
 4023c88:	3944b2e0 	ldrb	w0, [x23, #300]
 4023c8c:	4b000294 	sub	w20, w20, w0
 4023c90:	7100229f 	cmp	w20, #0x8
 4023c94:	540003a8 	b.hi	4023d08 <get_paras_data_from_flash+0x1a0>  // b.pmore
 4023c98:	0b1302d3 	add	w19, w22, w19
 4023c9c:	2a1603f5 	mov	w21, w22
 4023ca0:	34000374 	cbz	w20, 4023d0c <get_paras_data_from_flash+0x1a4>
 4023ca4:	aa1503e2 	mov	x2, x21
 4023ca8:	2a1303e1 	mov	w1, w19
 4023cac:	aa1903e0 	mov	x0, x25
 4023cb0:	d2800023 	mov	x3, #0x1                   	// #1
 4023cb4:	94000fd0 	bl	4027bf4 <mmc_read>
 4023cb8:	7102941f 	cmp	w0, #0xa5
 4023cbc:	54000261 	b.ne	4023d08 <get_paras_data_from_flash+0x1a0>  // b.any
 4023cc0:	0b160273 	add	w19, w19, w22
 4023cc4:	51000694 	sub	w20, w20, #0x1
 4023cc8:	17fffff6 	b	4023ca0 <get_paras_data_from_flash+0x138>
 4023ccc:	8b170340 	add	x0, x26, x23
 4023cd0:	0b130293 	add	w19, w20, w19
 4023cd4:	2a1603fc 	mov	w28, w22
 4023cd8:	2a1903e4 	mov	w4, w25
 4023cdc:	3944b014 	ldrb	w20, [x0, #300]
 4023ce0:	2a1303e1 	mov	w1, w19
 4023ce4:	34fffb94 	cbz	w20, 4023c54 <get_paras_data_from_flash+0xec>
 4023ce8:	aa0403e0 	mov	x0, x4
 4023cec:	aa1c03e2 	mov	x2, x28
 4023cf0:	d2800023 	mov	x3, #0x1                   	// #1
 4023cf4:	f90037e4 	str	x4, [sp, #104]
 4023cf8:	94000fbf 	bl	4027bf4 <mmc_read>
 4023cfc:	7102941f 	cmp	w0, #0xa5
 4023d00:	f94037e4 	ldr	x4, [sp, #104]
 4023d04:	54000140 	b.eq	4023d2c <get_paras_data_from_flash+0x1c4>  // b.none
 4023d08:	52800b58 	mov	w24, #0x5a                  	// #90
 4023d0c:	2a1803e0 	mov	w0, w24
 4023d10:	a9415bf5 	ldp	x21, x22, [sp, #16]
 4023d14:	a94263f7 	ldp	x23, x24, [sp, #32]
 4023d18:	a9436bf9 	ldp	x25, x26, [sp, #48]
 4023d1c:	a94473fb 	ldp	x27, x28, [sp, #64]
 4023d20:	f9402bfe 	ldr	x30, [sp, #80]
 4023d24:	a8c753f3 	ldp	x19, x20, [sp], #112
 4023d28:	d65f03c0 	ret
 4023d2c:	0b160273 	add	w19, w19, w22
 4023d30:	51000694 	sub	w20, w20, #0x1
 4023d34:	17ffffeb 	b	4023ce0 <get_paras_data_from_flash+0x178>
 4023d38:	528970e0 	mov	w0, #0x4b87                	// #19335
 4023d3c:	72ad34a0 	movk	w0, #0x69a5, lsl #16
 4023d40:	6b00029f 	cmp	w20, w0
 4023d44:	54fffe21 	b.ne	4023d08 <get_paras_data_from_flash+0x1a0>  // b.any
 4023d48:	94000fc3 	bl	4027c54 <enable_sdio_dma>
 4023d4c:	2a1c03e0 	mov	w0, w28
 4023d50:	94000fbd 	bl	4027c44 <set_sdio_pos>
 4023d54:	2a1b03e1 	mov	w1, w27
 4023d58:	2a1803e0 	mov	w0, w24
 4023d5c:	a9415bf5 	ldp	x21, x22, [sp, #16]
 4023d60:	a94263f7 	ldp	x23, x24, [sp, #32]
 4023d64:	a9436bf9 	ldp	x25, x26, [sp, #48]
 4023d68:	a94473fb 	ldp	x27, x28, [sp, #64]
 4023d6c:	f9402bfe 	ldr	x30, [sp, #80]
 4023d70:	a8c753f3 	ldp	x19, x20, [sp], #112
 4023d74:	14000fb0 	b	4027c34 <copy_from_sdio>

0000000004023d78 <get_uboot_info_from_flash>:
 4023d78:	a9bd53f3 	stp	x19, x20, [sp, #-48]!
 4023d7c:	a9015bf5 	stp	x21, x22, [sp, #16]
 4023d80:	2a0103f5 	mov	w21, w1
 4023d84:	aa0003f6 	mov	x22, x0
 4023d88:	f90013fe 	str	x30, [sp, #32]
 4023d8c:	940004e8 	bl	402512c <get_uboot_info_download_ddr_addr>
 4023d90:	aa0003f3 	mov	x19, x0
 4023d94:	97ffff30 	bl	4023a54 <get_uboot_info_flash_offset>
 4023d98:	2a0003f4 	mov	w20, w0
 4023d9c:	52896f00 	mov	w0, #0x4b78                	// #19320
 4023da0:	72b2d4a0 	movk	w0, #0x96a5, lsl #16
 4023da4:	6b0002bf 	cmp	w21, w0
 4023da8:	54000161 	b.ne	4023dd4 <get_uboot_info_from_flash+0x5c>  // b.any
 4023dac:	b9400ac2 	ldr	w2, [x22, #8]
 4023db0:	52a1e000 	mov	w0, #0xf000000             	// #251658240
 4023db4:	a9415bf5 	ldp	x21, x22, [sp, #16]
 4023db8:	0b000042 	add	w2, w2, w0
 4023dbc:	0b140042 	add	w2, w2, w20
 4023dc0:	2a1303e0 	mov	w0, w19
 4023dc4:	f94013fe 	ldr	x30, [sp, #32]
 4023dc8:	52804001 	mov	w1, #0x200                 	// #512
 4023dcc:	a8c353f3 	ldp	x19, x20, [sp], #48
 4023dd0:	17fffecd 	b	4023904 <dma_copy>
 4023dd4:	529690e0 	mov	w0, #0xb487                	// #46215
 4023dd8:	72ad2b40 	movk	w0, #0x695a, lsl #16
 4023ddc:	6b0002bf 	cmp	w21, w0
 4023de0:	54000141 	b.ne	4023e08 <get_uboot_info_from_flash+0x90>  // b.any
 4023de4:	b9400ac1 	ldr	w1, [x22, #8]
 4023de8:	2a1303e0 	mov	w0, w19
 4023dec:	a9415bf5 	ldp	x21, x22, [sp, #16]
 4023df0:	0b010281 	add	w1, w20, w1
 4023df4:	f94013fe 	ldr	x30, [sp, #32]
 4023df8:	d2800023 	mov	x3, #0x1                   	// #1
 4023dfc:	a8c353f3 	ldp	x19, x20, [sp], #48
 4023e00:	d2804002 	mov	x2, #0x200                 	// #512
 4023e04:	14000f7c 	b	4027bf4 <mmc_read>
 4023e08:	528970e0 	mov	w0, #0x4b87                	// #19335
 4023e0c:	72ad34a0 	movk	w0, #0x69a5, lsl #16
 4023e10:	6b0002bf 	cmp	w21, w0
 4023e14:	54000141 	b.ne	4023e3c <get_uboot_info_from_flash+0xc4>  // b.any
 4023e18:	94000f8f 	bl	4027c54 <enable_sdio_dma>
 4023e1c:	2a1403e0 	mov	w0, w20
 4023e20:	94000f89 	bl	4027c44 <set_sdio_pos>
 4023e24:	2a1303e0 	mov	w0, w19
 4023e28:	d2804001 	mov	x1, #0x200                 	// #512
 4023e2c:	a9415bf5 	ldp	x21, x22, [sp, #16]
 4023e30:	f94013fe 	ldr	x30, [sp, #32]
 4023e34:	a8c353f3 	ldp	x19, x20, [sp], #48
 4023e38:	14000f7f 	b	4027c34 <copy_from_sdio>
 4023e3c:	52800b40 	mov	w0, #0x5a                  	// #90
 4023e40:	a9415bf5 	ldp	x21, x22, [sp, #16]
 4023e44:	f94013fe 	ldr	x30, [sp, #32]
 4023e48:	a8c353f3 	ldp	x19, x20, [sp], #48
 4023e4c:	d65f03c0 	ret

0000000004023e50 <get_uboot_code_from_flash>:
 4023e50:	a9bd53f3 	stp	x19, x20, [sp, #-48]!
 4023e54:	2a0103f4 	mov	w20, w1
 4023e58:	a9015bf5 	stp	x21, x22, [sp, #16]
 4023e5c:	aa0003f5 	mov	x21, x0
 4023e60:	a9027bf7 	stp	x23, x30, [sp, #32]
 4023e64:	940004b2 	bl	402512c <get_uboot_info_download_ddr_addr>
 4023e68:	aa0003f6 	mov	x22, x0
 4023e6c:	b9408817 	ldr	w23, [x0, #136]
 4023e70:	97fffef9 	bl	4023a54 <get_uboot_info_flash_offset>
 4023e74:	11080013 	add	w19, w0, #0x200
 4023e78:	52896f00 	mov	w0, #0x4b78                	// #19320
 4023e7c:	b94026d6 	ldr	w22, [x22, #36]
 4023e80:	72b2d4a0 	movk	w0, #0x96a5, lsl #16
 4023e84:	6b00029f 	cmp	w20, w0
 4023e88:	54000161 	b.ne	4023eb4 <get_uboot_code_from_flash+0x64>  // b.any
 4023e8c:	b9400aa2 	ldr	w2, [x21, #8]
 4023e90:	52a1e000 	mov	w0, #0xf000000             	// #251658240
 4023e94:	2a1603e1 	mov	w1, w22
 4023e98:	0b000042 	add	w2, w2, w0
 4023e9c:	2a1703e0 	mov	w0, w23
 4023ea0:	0b130042 	add	w2, w2, w19
 4023ea4:	a9415bf5 	ldp	x21, x22, [sp, #16]
 4023ea8:	a9427bf7 	ldp	x23, x30, [sp, #32]
 4023eac:	a8c353f3 	ldp	x19, x20, [sp], #48
 4023eb0:	17fffe95 	b	4023904 <dma_copy>
 4023eb4:	529690e0 	mov	w0, #0xb487                	// #46215
 4023eb8:	72ad2b40 	movk	w0, #0x695a, lsl #16
 4023ebc:	6b00029f 	cmp	w20, w0
 4023ec0:	54000141 	b.ne	4023ee8 <get_uboot_code_from_flash+0x98>  // b.any
 4023ec4:	b9400aa1 	ldr	w1, [x21, #8]
 4023ec8:	2a1603e2 	mov	w2, w22
 4023ecc:	2a1703e0 	mov	w0, w23
 4023ed0:	d2800023 	mov	x3, #0x1                   	// #1
 4023ed4:	0b010261 	add	w1, w19, w1
 4023ed8:	a9415bf5 	ldp	x21, x22, [sp, #16]
 4023edc:	a9427bf7 	ldp	x23, x30, [sp, #32]
 4023ee0:	a8c353f3 	ldp	x19, x20, [sp], #48
 4023ee4:	14000f44 	b	4027bf4 <mmc_read>
 4023ee8:	528970e0 	mov	w0, #0x4b87                	// #19335
 4023eec:	72ad34a0 	movk	w0, #0x69a5, lsl #16
 4023ef0:	6b00029f 	cmp	w20, w0
 4023ef4:	54000141 	b.ne	4023f1c <get_uboot_code_from_flash+0xcc>  // b.any
 4023ef8:	94000f57 	bl	4027c54 <enable_sdio_dma>
 4023efc:	2a1303e0 	mov	w0, w19
 4023f00:	94000f51 	bl	4027c44 <set_sdio_pos>
 4023f04:	2a1603e1 	mov	w1, w22
 4023f08:	2a1703e0 	mov	w0, w23
 4023f0c:	a9415bf5 	ldp	x21, x22, [sp, #16]
 4023f10:	a9427bf7 	ldp	x23, x30, [sp, #32]
 4023f14:	a8c353f3 	ldp	x19, x20, [sp], #48
 4023f18:	14000f47 	b	4027c34 <copy_from_sdio>
 4023f1c:	52800b40 	mov	w0, #0x5a                  	// #90
 4023f20:	a9415bf5 	ldp	x21, x22, [sp, #16]
 4023f24:	a9427bf7 	ldp	x23, x30, [sp, #32]
 4023f28:	a8c353f3 	ldp	x19, x20, [sp], #48
 4023f2c:	d65f03c0 	ret

0000000004023f30 <get_random_num>:
 4023f30:	d29c2101 	mov	x1, #0xe108                	// #57608
 4023f34:	f2a203c1 	movk	x1, #0x101e, lsl #16
 4023f38:	b9400020 	ldr	w0, [x1]
 4023f3c:	f240101f 	tst	x0, #0x1f
 4023f40:	54ffffc0 	b.eq	4023f38 <get_random_num+0x8>  // b.none
 4023f44:	d29c2000 	mov	x0, #0xe100                	// #57600
 4023f48:	f2a203c0 	movk	x0, #0x101e, lsl #16
 4023f4c:	b9400000 	ldr	w0, [x0]
 4023f50:	d65f03c0 	ret

0000000004023f54 <failure_process>:
 4023f54:	a9be53f3 	stp	x19, x20, [sp, #-32]!
 4023f58:	2a0003f4 	mov	w20, w0
 4023f5c:	f9000bfe 	str	x30, [sp, #16]
 4023f60:	97fffc63 	bl	40230ec <get_low_power_mode>
 4023f64:	7101681f 	cmp	w0, #0x5a
 4023f68:	54000081 	b.ne	4023f78 <failure_process+0x24>  // b.any
 4023f6c:	97fffc65 	bl	4023100 <clear_lpds>
 4023f70:	52800000 	mov	w0, #0x0                   	// #0
 4023f74:	1400000d 	b	4023fa8 <failure_process+0x54>
 4023f78:	d2800280 	mov	x0, #0x14                  	// #20
 4023f7c:	f2a22040 	movk	x0, #0x1102, lsl #16
 4023f80:	b9400000 	ldr	w0, [x0]
 4023f84:	72001c1f 	tst	w0, #0xff
 4023f88:	540003e1 	b.ne	4024004 <failure_process+0xb0>  // b.any
 4023f8c:	94000946 	bl	40264a4 <opt_get_boot_backup_enable>
 4023f90:	2a0003f3 	mov	w19, w0
 4023f94:	7100041f 	cmp	w0, #0x1
 4023f98:	54000361 	b.ne	4024004 <failure_process+0xb0>  // b.any
 4023f9c:	97fffc32 	bl	4023064 <get_verify_backup_img_reg>
 4023fa0:	35000320 	cbnz	w0, 4024004 <failure_process+0xb0>
 4023fa4:	2a1303e0 	mov	w0, w19
 4023fa8:	97fffc29 	bl	402304c <set_verify_backup_img_reg>
 4023fac:	97fffc1d 	bl	4023020 <clean_boot_img_addr_size>
 4023fb0:	f0000040 	adrp	x0, 402e000 <ddrtrn_hal_set_dq_type+0xc>
 4023fb4:	913bec00 	add	x0, x0, #0xefb
 4023fb8:	94000f4b 	bl	4027ce4 <log_serial_puts>
 4023fbc:	94000919 	bl	4026420 <is_sec_dbg_enable>
 4023fc0:	5292cb41 	mov	w1, #0x965a                	// #38490
 4023fc4:	72a794a1 	movk	w1, #0x3ca5, lsl #16
 4023fc8:	6b01001f 	cmp	w0, w1
 4023fcc:	54000041 	b.ne	4023fd4 <failure_process+0x80>  // b.any
 4023fd0:	14000000 	b	4023fd0 <failure_process+0x7c>
 4023fd4:	d2800040 	mov	x0, #0x2                   	// #2
 4023fd8:	94000f5f 	bl	4027d54 <mdelay>
 4023fdc:	94000f4e 	bl	4027d14 <timer_deinit>
 4023fe0:	d2800080 	mov	x0, #0x4                   	// #4
 4023fe4:	52800021 	mov	w1, #0x1                   	// #1
 4023fe8:	f2a22040 	movk	x0, #0x1102, lsl #16
 4023fec:	f9400bfe 	ldr	x30, [sp, #16]
 4023ff0:	b9000001 	str	w1, [x0]
 4023ff4:	b9000001 	str	w1, [x0]
 4023ff8:	b9000001 	str	w1, [x0]
 4023ffc:	a8c253f3 	ldp	x19, x20, [sp], #32
 4024000:	d65f03c0 	ret
 4024004:	d0000040 	adrp	x0, 402e000 <ddrtrn_hal_set_dq_type+0xc>
 4024008:	913bac00 	add	x0, x0, #0xeeb
 402400c:	94000f36 	bl	4027ce4 <log_serial_puts>
 4024010:	d2902e02 	mov	x2, #0x8170                	// #33136
 4024014:	f2a203c2 	movk	x2, #0x101e, lsl #16
 4024018:	b9400041 	ldr	w1, [x2]
 402401c:	121c6c21 	and	w1, w1, #0xfffffff0
 4024020:	2a140020 	orr	w0, w1, w20
 4024024:	b9000040 	str	w0, [x2]
 4024028:	17ffffd2 	b	4023f70 <failure_process+0x1c>

000000000402402c <stack_chk_guard_setup>:
 402402c:	a9bd7bfd 	stp	x29, x30, [sp, #-48]!
 4024030:	910003fd 	mov	x29, sp
 4024034:	9100b3e0 	add	x0, sp, #0x2c
 4024038:	f9000bf3 	str	x19, [sp, #16]
 402403c:	b9002fff 	str	wzr, [sp, #44]
 4024040:	94000e8d 	bl	4027a74 <uapi_drv_cipher_trng_get_random>
 4024044:	b9402fe0 	ldr	w0, [sp, #44]
 4024048:	b0fffff3 	adrp	x19, 4021000 <hash_verify_buf-0xa80>
 402404c:	d3607c00 	lsl	x0, x0, #32
 4024050:	f9055260 	str	x0, [x19, #2720]
 4024054:	9100b3e0 	add	x0, sp, #0x2c
 4024058:	94000e87 	bl	4027a74 <uapi_drv_cipher_trng_get_random>
 402405c:	f9455261 	ldr	x1, [x19, #2720]
 4024060:	b9402fe0 	ldr	w0, [sp, #44]
 4024064:	aa010000 	orr	x0, x0, x1
 4024068:	f9055260 	str	x0, [x19, #2720]
 402406c:	f9400bf3 	ldr	x19, [sp, #16]
 4024070:	a8c37bfd 	ldp	x29, x30, [sp], #48
 4024074:	d65f03c0 	ret

0000000004024078 <err_print>:
 4024078:	d10083ff 	sub	sp, sp, #0x20
 402407c:	b0ffffe1 	adrp	x1, 4021000 <hash_verify_buf-0xa80>
 4024080:	a9017bf3 	stp	x19, x30, [sp, #16]
 4024084:	f9455022 	ldr	x2, [x1, #2720]
 4024088:	f90007e2 	str	x2, [sp, #8]
 402408c:	d2800002 	mov	x2, #0x0                   	// #0
 4024090:	7219001f 	tst	w0, #0x80
 4024094:	54000481 	b.ne	4024124 <err_print+0xac>  // b.any
 4024098:	12001c04 	and	w4, w0, #0xff
 402409c:	52800143 	mov	w3, #0xa                   	// #10
 40240a0:	52800c82 	mov	w2, #0x64                  	// #100
 40240a4:	39000fff 	strb	wzr, [sp, #3]
 40240a8:	1ac30880 	udiv	w0, w4, w3
 40240ac:	1ac20882 	udiv	w2, w4, w2
 40240b0:	1ac30801 	udiv	w1, w0, w3
 40240b4:	1100c042 	add	w2, w2, #0x30
 40240b8:	12001c42 	and	w2, w2, #0xff
 40240bc:	390003e2 	strb	w2, [sp]
 40240c0:	1b038021 	msub	w1, w1, w3, w0
 40240c4:	1b039000 	msub	w0, w0, w3, w4
 40240c8:	1100c021 	add	w1, w1, #0x30
 40240cc:	1100c000 	add	w0, w0, #0x30
 40240d0:	12001c21 	and	w1, w1, #0xff
 40240d4:	12001c00 	and	w0, w0, #0xff
 40240d8:	390007e1 	strb	w1, [sp, #1]
 40240dc:	39000be0 	strb	w0, [sp, #2]
 40240e0:	7100c05f 	cmp	w2, #0x30
 40240e4:	540002e1 	b.ne	4024140 <err_print+0xc8>  // b.any
 40240e8:	7100c03f 	cmp	w1, #0x30
 40240ec:	540002e1 	b.ne	4024148 <err_print+0xd0>  // b.any
 40240f0:	7100c01f 	cmp	w0, #0x30
 40240f4:	1a9f17f3 	cset	w19, eq  // eq = none
 40240f8:	11000a73 	add	w19, w19, #0x2
 40240fc:	52800141 	mov	w1, #0xa                   	// #10
 4024100:	52a22080 	mov	w0, #0x11040000            	// #285474816
 4024104:	94000d07 	bl	4027520 <serial_putc>
 4024108:	71000e7f 	cmp	w19, #0x3
 402410c:	54000221 	b.ne	4024150 <err_print+0xd8>  // b.any
 4024110:	52800601 	mov	w1, #0x30                  	// #48
 4024114:	52a22080 	mov	w0, #0x11040000            	// #285474816
 4024118:	94000d02 	bl	4027520 <serial_putc>
 402411c:	d2800140 	mov	x0, #0xa                   	// #10
 4024120:	94000f0d 	bl	4027d54 <mdelay>
 4024124:	b0ffffe0 	adrp	x0, 4021000 <hash_verify_buf-0xa80>
 4024128:	f94007e1 	ldr	x1, [sp, #8]
 402412c:	f9455002 	ldr	x2, [x0, #2720]
 4024130:	eb020021 	subs	x1, x1, x2
 4024134:	d2800002 	mov	x2, #0x0                   	// #0
 4024138:	54000140 	b.eq	4024160 <err_print+0xe8>  // b.none
 402413c:	9400000c 	bl	402416c <__stack_chk_fail>
 4024140:	52800013 	mov	w19, #0x0                   	// #0
 4024144:	17ffffee 	b	40240fc <err_print+0x84>
 4024148:	52800033 	mov	w19, #0x1                   	// #1
 402414c:	17ffffec 	b	40240fc <err_print+0x84>
 4024150:	92401e60 	and	x0, x19, #0xff
 4024154:	8b2063e0 	add	x0, sp, x0
 4024158:	94000ee3 	bl	4027ce4 <log_serial_puts>
 402415c:	17fffff0 	b	402411c <err_print+0xa4>
 4024160:	a9417bf3 	ldp	x19, x30, [sp, #16]
 4024164:	910083ff 	add	sp, sp, #0x20
 4024168:	d65f03c0 	ret

000000000402416c <__stack_chk_fail>:
 402416c:	a9bf7bfd 	stp	x29, x30, [sp, #-16]!
 4024170:	528007c0 	mov	w0, #0x3e                  	// #62
 4024174:	910003fd 	mov	x29, sp
 4024178:	97ffffc0 	bl	4024078 <err_print>
 402417c:	d2800040 	mov	x0, #0x2                   	// #2
 4024180:	94000ef5 	bl	4027d54 <mdelay>
 4024184:	94000ee4 	bl	4027d14 <timer_deinit>
 4024188:	d2800080 	mov	x0, #0x4                   	// #4
 402418c:	52800021 	mov	w1, #0x1                   	// #1
 4024190:	f2a22040 	movk	x0, #0x1102, lsl #16
 4024194:	b9000001 	str	w1, [x0]
 4024198:	b9000001 	str	w1, [x0]
 402419c:	b9000001 	str	w1, [x0]
 40241a0:	a8c17bfd 	ldp	x29, x30, [sp], #16
 40241a4:	d65f03c0 	ret

00000000040241a8 <first_recv_len_check>:
 40241a8:	a9bf7bf3 	stp	x19, x30, [sp, #-16]!
 40241ac:	aa0003f3 	mov	x19, x0
 40241b0:	940003d5 	bl	4025104 <get_ddr_param_info_addr>
 40241b4:	2a0003e2 	mov	w2, w0
 40241b8:	29440041 	ldp	w1, w0, [x2, #32]
 40241bc:	0b000021 	add	w1, w1, w0
 40241c0:	110c0021 	add	w1, w1, #0x300
 40241c4:	eb21c27f 	cmp	x19, w1, sxtw
 40241c8:	540000c0 	b.eq	40241e0 <first_recv_len_check+0x38>  // b.none
 40241cc:	52800860 	mov	w0, #0x43                  	// #67
 40241d0:	97ffffaa 	bl	4024078 <err_print>
 40241d4:	52800b40 	mov	w0, #0x5a                  	// #90
 40241d8:	a8c17bf3 	ldp	x19, x30, [sp], #16
 40241dc:	d65f03c0 	ret
 40241e0:	528014a0 	mov	w0, #0xa5                  	// #165
 40241e4:	17fffffd 	b	40241d8 <first_recv_len_check+0x30>

00000000040241e8 <sram_to_npu_info>:
 40241e8:	d0000040 	adrp	x0, 402e000 <ddrtrn_hal_set_dq_type+0xc>
 40241ec:	913c2000 	add	x0, x0, #0xf08
 40241f0:	14000ebd 	b	4027ce4 <log_serial_puts>

00000000040241f4 <sys_watchdog_enable>:
 40241f4:	5298d802 	mov	w2, #0xc6c0                	// #50880
 40241f8:	52807d01 	mov	w1, #0x3e8                 	// #1000
 40241fc:	72a005a2 	movk	w2, #0x2d, lsl #16
 4024200:	52800000 	mov	w0, #0x0                   	// #0
 4024204:	14000ed8 	b	4027d64 <watchdog_enable>

0000000004024208 <main_entry>:
 4024208:	d10503ff 	sub	sp, sp, #0x140
 402420c:	b0ffffe0 	adrp	x0, 4021000 <hash_verify_buf-0xa80>
 4024210:	a90f53f3 	stp	x19, x20, [sp, #240]
 4024214:	a9105bf5 	stp	x21, x22, [sp, #256]
 4024218:	a91163f7 	stp	x23, x24, [sp, #272]
 402421c:	a9126bf9 	stp	x25, x26, [sp, #288]
 4024220:	f9009bfe 	str	x30, [sp, #304]
 4024224:	f9455001 	ldr	x1, [x0, #2720]
 4024228:	f90077e1 	str	x1, [sp, #232]
 402422c:	d2800001 	mov	x1, #0x0                   	// #0
 4024230:	94000eed 	bl	4027de4 <save_cur_point_syscnt>
 4024234:	92a06001 	mov	x1, #0xfffffffffcffffff    	// #-50331649
 4024238:	52a06000 	mov	w0, #0x3000000             	// #50331648
 402423c:	94000e46 	bl	4027b54 <uapi_drv_klad_rootkey_disable>
 4024240:	92800061 	mov	x1, #0xfffffffffffffffc    	// #-4
 4024244:	52800060 	mov	w0, #0x3                   	// #3
 4024248:	f2bf9fe1 	movk	x1, #0xfcff, lsl #16
 402424c:	72a06000 	movk	w0, #0x300, lsl #16
 4024250:	94000e41 	bl	4027b54 <uapi_drv_klad_rootkey_disable>
 4024254:	94000399 	bl	40250b8 <get_gsl_heap_addr>
 4024258:	52900001 	mov	w1, #0x8000                	// #32768
 402425c:	940007d5 	bl	40261b0 <malloc_init>
 4024260:	94000ea9 	bl	4027d04 <timer_init>
 4024264:	a9037fff 	stp	xzr, xzr, [sp, #48]
 4024268:	d0000000 	adrp	x0, 4026000 <handle_atf_code+0x14c>
 402426c:	910a9000 	add	x0, x0, #0x2a4
 4024270:	f9000fe0 	str	x0, [sp, #24]
 4024274:	d0000000 	adrp	x0, 4026000 <handle_atf_code+0x14c>
 4024278:	910c8000 	add	x0, x0, #0x320
 402427c:	f90013e0 	str	x0, [sp, #32]
 4024280:	f0000000 	adrp	x0, 4027000 <start_svb+0x81c>
 4024284:	91148000 	add	x0, x0, #0x520
 4024288:	f90017e0 	str	x0, [sp, #40]
 402428c:	910063e0 	add	x0, sp, #0x18
 4024290:	f90023ff 	str	xzr, [sp, #64]
 4024294:	94000e50 	bl	4027bd4 <uapi_drv_register_func>
 4024298:	94000dc7 	bl	40279b4 <uapi_drv_cipher_init>
 402429c:	97fffddb 	bl	4023a08 <get_board_param_index>
 40242a0:	2a0003f4 	mov	w20, w0
 40242a4:	d2806380 	mov	x0, #0x31c                 	// #796
 40242a8:	f2a22040 	movk	x0, #0x1102, lsl #16
 40242ac:	b9400013 	ldr	w19, [x0]
 40242b0:	52968f00 	mov	w0, #0xb478                	// #46200
 40242b4:	72ad34a0 	movk	w0, #0x69a5, lsl #16
 40242b8:	6b00027f 	cmp	w19, w0
 40242bc:	54000200 	b.eq	40242fc <main_entry+0xf4>  // b.none
 40242c0:	529690e0 	mov	w0, #0xb487                	// #46215
 40242c4:	540006e8 	b.hi	40243a0 <main_entry+0x198>  // b.pmore
 40242c8:	72ad2b40 	movk	w0, #0x695a, lsl #16
 40242cc:	6b00027f 	cmp	w19, w0
 40242d0:	54000160 	b.eq	40242fc <main_entry+0xf4>  // b.none
 40242d4:	528970e0 	mov	w0, #0x4b87                	// #19335
 40242d8:	72ad34a0 	movk	w0, #0x69a5, lsl #16
 40242dc:	6b00027f 	cmp	w19, w0
 40242e0:	540000e0 	b.eq	40242fc <main_entry+0xf4>  // b.none
 40242e4:	52896f13 	mov	w19, #0x4b78                	// #19320
 40242e8:	528007e0 	mov	w0, #0x3f                  	// #63
 40242ec:	72b2cb53 	movk	w19, #0x965a, lsl #16
 40242f0:	97ffff62 	bl	4024078 <err_print>
 40242f4:	52800040 	mov	w0, #0x2                   	// #2
 40242f8:	97ffff17 	bl	4023f54 <failure_process>
 40242fc:	52968f17 	mov	w23, #0xb478                	// #46200
 4024300:	529690e0 	mov	w0, #0xb487                	// #46215
 4024304:	72ad34b7 	movk	w23, #0x69a5, lsl #16
 4024308:	6b17027f 	cmp	w19, w23
 402430c:	1a9f17f6 	cset	w22, eq  // eq = none
 4024310:	72b2cb40 	movk	w0, #0x965a, lsl #16
 4024314:	6b00027f 	cmp	w19, w0
 4024318:	1a9f17e0 	cset	w0, eq  // eq = none
 402431c:	2a0002d6 	orr	w22, w22, w0
 4024320:	52896f00 	mov	w0, #0x4b78                	// #19320
 4024324:	72b2d4a0 	movk	w0, #0x96a5, lsl #16
 4024328:	6b00027f 	cmp	w19, w0
 402432c:	529690e0 	mov	w0, #0xb487                	// #46215
 4024330:	1a9f17f5 	cset	w21, eq  // eq = none
 4024334:	72ad2b40 	movk	w0, #0x695a, lsl #16
 4024338:	6b00027f 	cmp	w19, w0
 402433c:	1a9f17e0 	cset	w0, eq  // eq = none
 4024340:	2a0002b5 	orr	w21, w21, w0
 4024344:	34002e76 	cbz	w22, 4024910 <main_entry+0x708>
 4024348:	52800000 	mov	w0, #0x0                   	// #0
 402434c:	94000e8a 	bl	4027d74 <watchdog_disable>
 4024350:	6b17027f 	cmp	w19, w23
 4024354:	54000321 	b.ne	40243b8 <main_entry+0x1b0>  // b.any
 4024358:	2a1403e0 	mov	w0, w20
 402435c:	94000c0c 	bl	402738c <send_board_type_to_uart>
 4024360:	7102941f 	cmp	w0, #0xa5
 4024364:	54000060 	b.eq	4024370 <main_entry+0x168>  // b.none
 4024368:	52800060 	mov	w0, #0x3                   	// #3
 402436c:	97fffefa 	bl	4023f54 <failure_process>
 4024370:	94000360 	bl	40250f0 <get_ree_key_area_addr>
 4024374:	2a0003e0 	mov	w0, w0
 4024378:	910063e1 	add	x1, sp, #0x18
 402437c:	52880002 	mov	w2, #0x4000                	// #16384
 4024380:	94000e5d 	bl	4027cf4 <copy_from_uart>
 4024384:	7102941f 	cmp	w0, #0xa5
 4024388:	54000a60 	b.eq	40244d4 <main_entry+0x2cc>  // b.none
 402438c:	52800820 	mov	w0, #0x41                  	// #65
 4024390:	97ffff3a 	bl	4024078 <err_print>
 4024394:	52800060 	mov	w0, #0x3                   	// #3
 4024398:	97fffeef 	bl	4023f54 <failure_process>
 402439c:	14000052 	b	40244e4 <main_entry+0x2dc>
 40243a0:	72b2cb40 	movk	w0, #0x965a, lsl #16
 40243a4:	6b00027f 	cmp	w19, w0
 40243a8:	54fffaa0 	b.eq	40242fc <main_entry+0xf4>  // b.none
 40243ac:	52896f00 	mov	w0, #0x4b78                	// #19320
 40243b0:	72b2d4a0 	movk	w0, #0x96a5, lsl #16
 40243b4:	17ffffca 	b	40242dc <main_entry+0xd4>
 40243b8:	52800b40 	mov	w0, #0x5a                  	// #90
 40243bc:	d2800203 	mov	x3, #0x10                  	// #16
 40243c0:	52800002 	mov	w2, #0x0                   	// #0
 40243c4:	aa0303e1 	mov	x1, x3
 40243c8:	b9000fe0 	str	w0, [sp, #12]
 40243cc:	910063e0 	add	x0, sp, #0x18
 40243d0:	f9000bff 	str	xzr, [sp, #16]
 40243d4:	94000e80 	bl	4027dd4 <memset_s>
 40243d8:	35000780 	cbnz	w0, 40244c8 <main_entry+0x2c0>
 40243dc:	910363f9 	add	x25, sp, #0xd8
 40243e0:	52a00038 	mov	w24, #0x10000               	// #65536
 40243e4:	94000e28 	bl	4027c84 <usb3_driver_init>
 40243e8:	910043e1 	add	x1, sp, #0x10
 40243ec:	aa1903e0 	mov	x0, x25
 40243f0:	528001c2 	mov	w2, #0xe                   	// #14
 40243f4:	94000e20 	bl	4027c74 <copy_from_usb>
 40243f8:	b9000fe0 	str	w0, [sp, #12]
 40243fc:	b9400fe0 	ldr	w0, [sp, #12]
 4024400:	7102941f 	cmp	w0, #0xa5
 4024404:	54000581 	b.ne	40244b4 <main_entry+0x2ac>  // b.any
 4024408:	f9400be0 	ldr	x0, [sp, #16]
 402440c:	f100381f 	cmp	x0, #0xe
 4024410:	54000521 	b.ne	40244b4 <main_entry+0x2ac>  // b.any
 4024414:	394363e0 	ldrb	w0, [sp, #216]
 4024418:	7103381f 	cmp	w0, #0xce
 402441c:	540004c1 	b.ne	40244b4 <main_entry+0x2ac>  // b.any
 4024420:	39436be0 	ldrb	w0, [sp, #218]
 4024424:	394367e1 	ldrb	w1, [sp, #217]
 4024428:	2a2003e0 	mvn	w0, w0
 402442c:	6b20003f 	cmp	w1, w0, uxtb
 4024430:	54000421 	b.ne	40244b4 <main_entry+0x2ac>  // b.any
 4024434:	7941cbf7 	ldrh	w23, [sp, #228]
 4024438:	d280001a 	mov	x26, #0x0                   	// #0
 402443c:	52800001 	mov	w1, #0x0                   	// #0
 4024440:	5ac006f7 	rev16	w23, w23
 4024444:	12003ef7 	and	w23, w23, #0xffff
 4024448:	387a6b20 	ldrb	w0, [x25, x26]
 402444c:	9100075a 	add	x26, x26, #0x1
 4024450:	9400074a 	bl	4026178 <cal_crc_perbyte>
 4024454:	12003c01 	and	w1, w0, #0xffff
 4024458:	f100335f 	cmp	x26, #0xc
 402445c:	54ffff61 	b.ne	4024448 <main_entry+0x240>  // b.any
 4024460:	6b0102ff 	cmp	w23, w1
 4024464:	54000281 	b.ne	40244b4 <main_entry+0x2ac>  // b.any
 4024468:	910323e1 	add	x1, sp, #0xc8
 402446c:	52800162 	mov	w2, #0xb                   	// #11
 4024470:	2a1403e0 	mov	w0, w20
 4024474:	97fffd3e 	bl	402396c <build_board_type_frame>
 4024478:	d2800161 	mov	x1, #0xb                   	// #11
 402447c:	910323e0 	add	x0, sp, #0xc8
 4024480:	94000e05 	bl	4027c94 <send_to_usb>
 4024484:	d0000040 	adrp	x0, 402e000 <ddrtrn_hal_set_dq_type+0xc>
 4024488:	913ca000 	add	x0, x0, #0xf28
 402448c:	94000e16 	bl	4027ce4 <log_serial_puts>
 4024490:	94000318 	bl	40250f0 <get_ree_key_area_addr>
 4024494:	2a0003e0 	mov	w0, w0
 4024498:	910063e1 	add	x1, sp, #0x18
 402449c:	52880002 	mov	w2, #0x4000                	// #16384
 40244a0:	94000df5 	bl	4027c74 <copy_from_usb>
 40244a4:	7102941f 	cmp	w0, #0xa5
 40244a8:	54000160 	b.eq	40244d4 <main_entry+0x2cc>  // b.none
 40244ac:	52800840 	mov	w0, #0x42                  	// #66
 40244b0:	17ffffb8 	b	4024390 <main_entry+0x188>
 40244b4:	71000718 	subs	w24, w24, #0x1
 40244b8:	54fff981 	b.ne	40243e8 <main_entry+0x1e0>  // b.any
 40244bc:	d0000040 	adrp	x0, 402e000 <ddrtrn_hal_set_dq_type+0xc>
 40244c0:	913c5c00 	add	x0, x0, #0xf17
 40244c4:	94000e08 	bl	4027ce4 <log_serial_puts>
 40244c8:	52800060 	mov	w0, #0x3                   	// #3
 40244cc:	97fffea2 	bl	4023f54 <failure_process>
 40244d0:	17fffff0 	b	4024490 <main_entry+0x288>
 40244d4:	f9400fe0 	ldr	x0, [sp, #24]
 40244d8:	97ffff34 	bl	40241a8 <first_recv_len_check>
 40244dc:	7102941f 	cmp	w0, #0xa5
 40244e0:	54fff5a1 	b.ne	4024394 <main_entry+0x18c>  // b.any
 40244e4:	97ffff44 	bl	40241f4 <sys_watchdog_enable>
 40244e8:	940003f5 	bl	40254bc <handle_ree_key_area>
 40244ec:	7102941f 	cmp	w0, #0xa5
 40244f0:	54000120 	b.eq	4024514 <main_entry+0x30c>  // b.none
 40244f4:	52800d00 	mov	w0, #0x68                  	// #104
 40244f8:	97fffee0 	bl	4024078 <err_print>
 40244fc:	528000c0 	mov	w0, #0x6                   	// #6
 4024500:	97fffe95 	bl	4023f54 <failure_process>
 4024504:	52800d00 	mov	w0, #0x68                  	// #104
 4024508:	97fffedc 	bl	4024078 <err_print>
 402450c:	528000c0 	mov	w0, #0x6                   	// #6
 4024510:	97fffe91 	bl	4023f54 <failure_process>
 4024514:	2a1403e0 	mov	w0, w20
 4024518:	9400045e 	bl	4025690 <handle_ddr_param_info>
 402451c:	7102941f 	cmp	w0, #0xa5
 4024520:	54000120 	b.eq	4024544 <main_entry+0x33c>  // b.none
 4024524:	52800d20 	mov	w0, #0x69                  	// #105
 4024528:	97fffed4 	bl	4024078 <err_print>
 402452c:	528000e0 	mov	w0, #0x7                   	// #7
 4024530:	97fffe89 	bl	4023f54 <failure_process>
 4024534:	52800d20 	mov	w0, #0x69                  	// #105
 4024538:	97fffed0 	bl	4024078 <err_print>
 402453c:	528000e0 	mov	w0, #0x7                   	// #7
 4024540:	97fffe85 	bl	4023f54 <failure_process>
 4024544:	350000b5 	cbnz	w21, 4024558 <main_entry+0x350>
 4024548:	528970e0 	mov	w0, #0x4b87                	// #19335
 402454c:	72ad34a0 	movk	w0, #0x69a5, lsl #16
 4024550:	6b00027f 	cmp	w19, w0
 4024554:	54000161 	b.ne	4024580 <main_entry+0x378>  // b.any
 4024558:	b0ffffe0 	adrp	x0, 4021000 <hash_verify_buf-0xa80>
 402455c:	912a8000 	add	x0, x0, #0xaa0
 4024560:	2a1303e2 	mov	w2, w19
 4024564:	2a1403e1 	mov	w1, w20
 4024568:	91002000 	add	x0, x0, #0x8
 402456c:	97fffd7f 	bl	4023b68 <get_paras_data_from_flash>
 4024570:	7102941f 	cmp	w0, #0xa5
 4024574:	54000060 	b.eq	4024580 <main_entry+0x378>  // b.none
 4024578:	528000e0 	mov	w0, #0x7                   	// #7
 402457c:	97fffe76 	bl	4023f54 <failure_process>
 4024580:	2a1403e0 	mov	w0, w20
 4024584:	940004cb 	bl	40258b0 <handle_ddr_param>
 4024588:	7102941f 	cmp	w0, #0xa5
 402458c:	54000120 	b.eq	40245b0 <main_entry+0x3a8>  // b.none
 4024590:	52800d40 	mov	w0, #0x6a                  	// #106
 4024594:	97fffeb9 	bl	4024078 <err_print>
 4024598:	528000e0 	mov	w0, #0x7                   	// #7
 402459c:	97fffe6e 	bl	4023f54 <failure_process>
 40245a0:	52800d40 	mov	w0, #0x6a                  	// #106
 40245a4:	97fffeb5 	bl	4024078 <err_print>
 40245a8:	528000e0 	mov	w0, #0x7                   	// #7
 40245ac:	97fffe6a 	bl	4023f54 <failure_process>
 40245b0:	2a1303e0 	mov	w0, w19
 40245b4:	94000e71 	bl	4027f78 <bsp_gpll_config>
 40245b8:	940002d8 	bl	4025118 <get_ddr_param_data_addr>
 40245bc:	2a0003f7 	mov	w23, w0
 40245c0:	d2918560 	mov	x0, #0x8c2b                	// #35883
 40245c4:	aa1703f4 	mov	x20, x23
 40245c8:	f2a34dc0 	movk	x0, #0x1a6e, lsl #16
 40245cc:	f94002e1 	ldr	x1, [x23]
 40245d0:	f2cdc340 	movk	x0, #0x6e1a, lsl #32
 40245d4:	f2e57180 	movk	x0, #0x2b8c, lsl #48
 40245d8:	eb00003f 	cmp	x1, x0
 40245dc:	54000221 	b.ne	4024620 <main_entry+0x418>  // b.any
 40245e0:	d0000040 	adrp	x0, 402e000 <ddrtrn_hal_set_dq_type+0xc>
 40245e4:	913d0c00 	add	x0, x0, #0xf43
 40245e8:	94000dbf 	bl	4027ce4 <log_serial_puts>
 40245ec:	1102e2f4 	add	w20, w23, #0xb8
 40245f0:	910022e0 	add	x0, x23, #0x8
 40245f4:	94000dbc 	bl	4027ce4 <log_serial_puts>
 40245f8:	d0000040 	adrp	x0, 402e000 <ddrtrn_hal_set_dq_type+0xc>
 40245fc:	913d7400 	add	x0, x0, #0xf5d
 4024600:	94000db9 	bl	4027ce4 <log_serial_puts>
 4024604:	910062e0 	add	x0, x23, #0x18
 4024608:	94000db7 	bl	4027ce4 <log_serial_puts>
 402460c:	d0000040 	adrp	x0, 402e000 <ddrtrn_hal_set_dq_type+0xc>
 4024610:	913ddc00 	add	x0, x0, #0xf77
 4024614:	94000db4 	bl	4027ce4 <log_serial_puts>
 4024618:	9100e2e0 	add	x0, x23, #0x38
 402461c:	94000db2 	bl	4027ce4 <log_serial_puts>
 4024620:	2a1403e0 	mov	w0, w20
 4024624:	52800001 	mov	w1, #0x0                   	// #0
 4024628:	94000ad6 	bl	4027180 <init_registers>
 402462c:	52800034 	mov	w20, #0x1                   	// #1
 4024630:	d2884400 	mov	x0, #0x4220                	// #16928
 4024634:	52800141 	mov	w1, #0xa                   	// #10
 4024638:	f2a22040 	movk	x0, #0x1102, lsl #16
 402463c:	b9000001 	str	w1, [x0]
 4024640:	b900041f 	str	wzr, [x0, #4]
 4024644:	b9000414 	str	w20, [x0, #4]
 4024648:	94000867 	bl	40267e4 <start_svb>
 402464c:	2a1403e2 	mov	w2, w20
 4024650:	12800001 	mov	w1, #0xffffffff            	// #-1
 4024654:	2a0103e0 	mov	w0, w1
 4024658:	94000b12 	bl	40272a0 <bsp_ddrtrn_training_item>
 402465c:	94000b10 	bl	402729c <bsp_ddrtrn_retrain_enable>
 4024660:	94000b4a 	bl	4027388 <bsp_ddrtrn_dmc_auto_power_down_cfg>
 4024664:	d2802d00 	mov	x0, #0x168                 	// #360
 4024668:	f2a22040 	movk	x0, #0x1102, lsl #16
 402466c:	b9400000 	ldr	w0, [x0]
 4024670:	12003c00 	and	w0, w0, #0xffff
 4024674:	7104001f 	cmp	w0, #0x100
 4024678:	540000e9 	b.ls	4024694 <main_entry+0x48c>  // b.plast
 402467c:	94000b2f 	bl	4027338 <bsp_ddrtrn_capat_adapt>
 4024680:	2a0003f4 	mov	w20, w0
 4024684:	35001b20 	cbnz	w0, 40249e8 <main_entry+0x7e0>
 4024688:	d0000040 	adrp	x0, 402e000 <ddrtrn_hal_set_dq_type+0xc>
 402468c:	913e4400 	add	x0, x0, #0xf91
 4024690:	94000d95 	bl	4027ce4 <log_serial_puts>
 4024694:	94000e34 	bl	4027f64 <get_ddr_scrub_and_gpll_switch>
 4024698:	12001c00 	and	w0, w0, #0xff
 402469c:	7100041f 	cmp	w0, #0x1
 40246a0:	54001b40 	b.eq	4024a08 <main_entry+0x800>  // b.none
 40246a4:	b0fffff4 	adrp	x20, 4021000 <hash_verify_buf-0xa80>
 40246a8:	94000a6d 	bl	402705c <end_svb>
 40246ac:	912a8294 	add	x20, x20, #0xaa0
 40246b0:	34002616 	cbz	w22, 4024b70 <main_entry+0x968>
 40246b4:	52800000 	mov	w0, #0x0                   	// #0
 40246b8:	94000daf 	bl	4027d74 <watchdog_disable>
 40246bc:	52968f00 	mov	w0, #0xb478                	// #46200
 40246c0:	72ad34a0 	movk	w0, #0x69a5, lsl #16
 40246c4:	6b00027f 	cmp	w19, w0
 40246c8:	54002321 	b.ne	4024b2c <main_entry+0x924>  // b.any
 40246cc:	f9000fff 	str	xzr, [sp, #24]
 40246d0:	94000297 	bl	402512c <get_uboot_info_download_ddr_addr>
 40246d4:	910063e1 	add	x1, sp, #0x18
 40246d8:	2a0003e0 	mov	w0, w0
 40246dc:	52a00202 	mov	w2, #0x100000              	// #1048576
 40246e0:	94000d85 	bl	4027cf4 <copy_from_uart>
 40246e4:	7102941f 	cmp	w0, #0xa5
 40246e8:	54002340 	b.eq	4024b50 <main_entry+0x948>  // b.none
 40246ec:	52800de0 	mov	w0, #0x6f                  	// #111
 40246f0:	97fffe62 	bl	4024078 <err_print>
 40246f4:	52800100 	mov	w0, #0x8                   	// #8
 40246f8:	97fffe17 	bl	4023f54 <failure_process>
 40246fc:	97fffebe 	bl	40241f4 <sys_watchdog_enable>
 4024700:	9400049f 	bl	402597c <handle_uboot_info>
 4024704:	7102941f 	cmp	w0, #0xa5
 4024708:	54000120 	b.eq	402472c <main_entry+0x524>  // b.none
 402470c:	52800e20 	mov	w0, #0x71                  	// #113
 4024710:	97fffe5a 	bl	4024078 <err_print>
 4024714:	52800100 	mov	w0, #0x8                   	// #8
 4024718:	97fffe0f 	bl	4023f54 <failure_process>
 402471c:	52800e20 	mov	w0, #0x71                  	// #113
 4024720:	97fffe56 	bl	4024078 <err_print>
 4024724:	52800100 	mov	w0, #0x8                   	// #8
 4024728:	97fffe0b 	bl	4023f54 <failure_process>
 402472c:	34000176 	cbz	w22, 4024758 <main_entry+0x550>
 4024730:	9400027f 	bl	402512c <get_uboot_info_download_ddr_addr>
 4024734:	92407c03 	and	x3, x0, #0xffffffff
 4024738:	11080002 	add	w2, w0, #0x200
 402473c:	b9402461 	ldr	w1, [x3, #36]
 4024740:	b9408860 	ldr	w0, [x3, #136]
 4024744:	97fffc70 	bl	4023904 <dma_copy>
 4024748:	7102941f 	cmp	w0, #0xa5
 402474c:	54000060 	b.eq	4024758 <main_entry+0x550>  // b.none
 4024750:	52800100 	mov	w0, #0x8                   	// #8
 4024754:	97fffe00 	bl	4023f54 <failure_process>
 4024758:	350000b5 	cbnz	w21, 402476c <main_entry+0x564>
 402475c:	528970e0 	mov	w0, #0x4b87                	// #19335
 4024760:	72ad34a0 	movk	w0, #0x69a5, lsl #16
 4024764:	6b00027f 	cmp	w19, w0
 4024768:	54000101 	b.ne	4024788 <main_entry+0x580>  // b.any
 402476c:	2a1303e1 	mov	w1, w19
 4024770:	91002280 	add	x0, x20, #0x8
 4024774:	97fffdb7 	bl	4023e50 <get_uboot_code_from_flash>
 4024778:	7102941f 	cmp	w0, #0xa5
 402477c:	54000060 	b.eq	4024788 <main_entry+0x580>  // b.none
 4024780:	528000e0 	mov	w0, #0x7                   	// #7
 4024784:	97fffdf4 	bl	4023f54 <failure_process>
 4024788:	940004d7 	bl	4025ae4 <handle_uboot_code>
 402478c:	7102941f 	cmp	w0, #0xa5
 4024790:	54000120 	b.eq	40247b4 <main_entry+0x5ac>  // b.none
 4024794:	52800e40 	mov	w0, #0x72                  	// #114
 4024798:	97fffe38 	bl	4024078 <err_print>
 402479c:	52800100 	mov	w0, #0x8                   	// #8
 40247a0:	97fffded 	bl	4023f54 <failure_process>
 40247a4:	52800e40 	mov	w0, #0x72                  	// #114
 40247a8:	97fffe34 	bl	4024078 <err_print>
 40247ac:	52800100 	mov	w0, #0x8                   	// #8
 40247b0:	97fffde9 	bl	4023f54 <failure_process>
 40247b4:	9400025e 	bl	402512c <get_uboot_info_download_ddr_addr>
 40247b8:	2a0003f3 	mov	w19, w0
 40247bc:	d2804003 	mov	x3, #0x200                 	// #512
 40247c0:	aa1303e2 	mov	x2, x19
 40247c4:	aa0303e1 	mov	x1, x3
 40247c8:	b9408a60 	ldr	w0, [x19, #136]
 40247cc:	51080000 	sub	w0, w0, #0x200
 40247d0:	94000d7d 	bl	4027dc4 <memcpy_s>
 40247d4:	35000220 	cbnz	w0, 4024818 <main_entry+0x610>
 40247d8:	b9408a75 	ldr	w21, [x19, #136]
 40247dc:	94000245 	bl	40250f0 <get_ree_key_area_addr>
 40247e0:	d2802003 	mov	x3, #0x100                 	// #256
 40247e4:	2a0003e2 	mov	w2, w0
 40247e8:	510c02b5 	sub	w21, w21, #0x300
 40247ec:	aa0303e1 	mov	x1, x3
 40247f0:	aa1503e0 	mov	x0, x21
 40247f4:	94000d74 	bl	4027dc4 <memcpy_s>
 40247f8:	35000100 	cbnz	w0, 4024818 <main_entry+0x610>
 40247fc:	b9408a60 	ldr	w0, [x19, #136]
 4024800:	d2856002 	mov	x2, #0x2b00                	// #11008
 4024804:	d2802003 	mov	x3, #0x100                 	// #256
 4024808:	f2a08042 	movk	x2, #0x402, lsl #16
 402480c:	aa0303e1 	mov	x1, x3
 4024810:	51100000 	sub	w0, w0, #0x400
 4024814:	94000d6c 	bl	4027dc4 <memcpy_s>
 4024818:	d28a0501 	mov	x1, #0x5028                	// #20520
 402481c:	f2a22041 	movk	x1, #0x1102, lsl #16
 4024820:	b9400020 	ldr	w0, [x1]
 4024824:	12185c00 	and	w0, w0, #0xffffff00
 4024828:	32001800 	orr	w0, w0, #0x7f
 402482c:	b9000020 	str	w0, [x1]
 4024830:	b9400020 	ldr	w0, [x1]
 4024834:	12001c00 	and	w0, w0, #0xff
 4024838:	7101fc1f 	cmp	w0, #0x7f
 402483c:	540001a0 	b.eq	4024870 <main_entry+0x668>  // b.none
 4024840:	d0000040 	adrp	x0, 402e000 <ddrtrn_hal_set_dq_type+0xc>
 4024844:	913ed800 	add	x0, x0, #0xfb6
 4024848:	94000d27 	bl	4027ce4 <log_serial_puts>
 402484c:	d2800040 	mov	x0, #0x2                   	// #2
 4024850:	94000d41 	bl	4027d54 <mdelay>
 4024854:	94000d30 	bl	4027d14 <timer_deinit>
 4024858:	d2800080 	mov	x0, #0x4                   	// #4
 402485c:	52800021 	mov	w1, #0x1                   	// #1
 4024860:	f2a22040 	movk	x0, #0x1102, lsl #16
 4024864:	b9000001 	str	w1, [x0]
 4024868:	b9000001 	str	w1, [x0]
 402486c:	b9000001 	str	w1, [x0]
 4024870:	d28a0600 	mov	x0, #0x5030                	// #20528
 4024874:	52800021 	mov	w1, #0x1                   	// #1
 4024878:	f2a22040 	movk	x0, #0x1102, lsl #16
 402487c:	d0000053 	adrp	x19, 402e000 <ddrtrn_hal_set_dq_type+0xc>
 4024880:	913f3673 	add	x19, x19, #0xfcd
 4024884:	b9000001 	str	w1, [x0]
 4024888:	97fffa5d 	bl	40231fc <calculate_all_lpds_data>
 402488c:	97fff9fb 	bl	4023078 <enable_lpds_lock>
 4024890:	94000227 	bl	402512c <get_uboot_info_download_ddr_addr>
 4024894:	b9408800 	ldr	w0, [x0, #136]
 4024898:	d2802801 	mov	x1, #0x140                 	// #320
 402489c:	f2a22041 	movk	x1, #0x1102, lsl #16
 40248a0:	2a0003e0 	mov	w0, w0
 40248a4:	b900003f 	str	wzr, [x1]
 40248a8:	f9000e80 	str	x0, [x20, #24]
 40248ac:	52800000 	mov	w0, #0x0                   	// #0
 40248b0:	94000d31 	bl	4027d74 <watchdog_disable>
 40248b4:	528d34b4 	mov	w20, #0x69a5                	// #27045
 40248b8:	94000d4b 	bl	4027de4 <save_cur_point_syscnt>
 40248bc:	72b86b54 	movk	w20, #0xc35a, lsl #16
 40248c0:	d2884080 	mov	x0, #0x4204                	// #16900
 40248c4:	52917001 	mov	w1, #0x8b80                	// #35712
 40248c8:	f2a22040 	movk	x0, #0x1102, lsl #16
 40248cc:	72a02001 	movk	w1, #0x100, lsl #16
 40248d0:	b9000001 	str	w1, [x0]
 40248d4:	d2840981 	mov	x1, #0x204c                	// #8268
 40248d8:	f2a22021 	movk	x1, #0x1101, lsl #16
 40248dc:	b9400020 	ldr	w0, [x1]
 40248e0:	121e7400 	and	w0, w0, #0xfffffffc
 40248e4:	321c0000 	orr	w0, w0, #0x10
 40248e8:	b9000020 	str	w0, [x1]
 40248ec:	910123e1 	add	x1, sp, #0x48
 40248f0:	52800022 	mov	w2, #0x1                   	// #1
 40248f4:	52800000 	mov	w0, #0x0                   	// #0
 40248f8:	94000d64 	bl	4027e88 <ipc_recv_msg>
 40248fc:	7100001f 	cmp	w0, #0x0
 4024900:	5400166c 	b.gt	4024bcc <main_entry+0x9c4>
 4024904:	aa1303e0 	mov	x0, x19
 4024908:	94000cf7 	bl	4027ce4 <log_serial_puts>
 402490c:	17fffff8 	b	40248ec <main_entry+0x6e4>
 4024910:	350000b5 	cbnz	w21, 4024924 <main_entry+0x71c>
 4024914:	528970e0 	mov	w0, #0x4b87                	// #19335
 4024918:	72ad34a0 	movk	w0, #0x69a5, lsl #16
 402491c:	6b00027f 	cmp	w19, w0
 4024920:	54000501 	b.ne	40249c0 <main_entry+0x7b8>  // b.any
 4024924:	97fffa20 	bl	40231a4 <verify_all_lpds_data>
 4024928:	7102941f 	cmp	w0, #0xa5
 402492c:	54000060 	b.eq	4024938 <main_entry+0x730>  // b.none
 4024930:	528000e0 	mov	w0, #0x7                   	// #7
 4024934:	97fffd88 	bl	4023f54 <failure_process>
 4024938:	d2800183 	mov	x3, #0xc                   	// #12
 402493c:	b0fffff7 	adrp	x23, 4021000 <hash_verify_buf-0xa80>
 4024940:	aa0303e1 	mov	x1, x3
 4024944:	912a82f7 	add	x23, x23, #0xaa0
 4024948:	52800002 	mov	w2, #0x0                   	// #0
 402494c:	910022f9 	add	x25, x23, #0x8
 4024950:	aa1903e0 	mov	x0, x25
 4024954:	94000d20 	bl	4027dd4 <memset_s>
 4024958:	97fff9c3 	bl	4023064 <get_verify_backup_img_reg>
 402495c:	2a0003f8 	mov	w24, w0
 4024960:	d2800280 	mov	x0, #0x14                  	// #20
 4024964:	f2a22040 	movk	x0, #0x1102, lsl #16
 4024968:	b9400000 	ldr	w0, [x0]
 402496c:	72001c1f 	tst	w0, #0xff
 4024970:	54000181 	b.ne	40249a0 <main_entry+0x798>  // b.any
 4024974:	940006cc 	bl	40264a4 <opt_get_boot_backup_enable>
 4024978:	7100041f 	cmp	w0, #0x1
 402497c:	54000121 	b.ne	40249a0 <main_entry+0x798>  // b.any
 4024980:	34000118 	cbz	w24, 40249a0 <main_entry+0x798>
 4024984:	d2800281 	mov	x1, #0x14                  	// #20
 4024988:	f2a22241 	movk	x1, #0x1112, lsl #16
 402498c:	b9400022 	ldr	w2, [x1]
 4024990:	34000082 	cbz	w2, 40249a0 <main_entry+0x798>
 4024994:	b9400021 	ldr	w1, [x1]
 4024998:	b9000ae0 	str	w0, [x23, #8]
 402499c:	b90012e1 	str	w1, [x23, #16]
 40249a0:	2a1303e1 	mov	w1, w19
 40249a4:	910022e0 	add	x0, x23, #0x8
 40249a8:	97fffc36 	bl	4023a80 <get_ree_key_and_paras_info_from_device>
 40249ac:	7102941f 	cmp	w0, #0xa5
 40249b0:	54ffd9c0 	b.eq	40244e8 <main_entry+0x2e0>  // b.none
 40249b4:	528000e0 	mov	w0, #0x7                   	// #7
 40249b8:	97fffd67 	bl	4023f54 <failure_process>
 40249bc:	17fffecb 	b	40244e8 <main_entry+0x2e0>
 40249c0:	d2800040 	mov	x0, #0x2                   	// #2
 40249c4:	94000ce4 	bl	4027d54 <mdelay>
 40249c8:	94000cd3 	bl	4027d14 <timer_deinit>
 40249cc:	d2800080 	mov	x0, #0x4                   	// #4
 40249d0:	52800021 	mov	w1, #0x1                   	// #1
 40249d4:	f2a22040 	movk	x0, #0x1102, lsl #16
 40249d8:	b9000001 	str	w1, [x0]
 40249dc:	b9000001 	str	w1, [x0]
 40249e0:	b9000001 	str	w1, [x0]
 40249e4:	17fffec1 	b	40244e8 <main_entry+0x2e0>
 40249e8:	d0000040 	adrp	x0, 402e000 <ddrtrn_hal_set_dq_type+0xc>
 40249ec:	913e9400 	add	x0, x0, #0xfa5
 40249f0:	94000cbd 	bl	4027ce4 <log_serial_puts>
 40249f4:	2a1403e0 	mov	w0, w20
 40249f8:	94000b15 	bl	402764c <serial_put_hex>
 40249fc:	d0000040 	adrp	x0, 402e000 <ddrtrn_hal_set_dq_type+0xc>
 4024a00:	913ecc00 	add	x0, x0, #0xfb3
 4024a04:	17ffff23 	b	4024690 <main_entry+0x488>
 4024a08:	d2900a01 	mov	x1, #0x8050                	// #32848
 4024a0c:	f2a22281 	movk	x1, #0x1114, lsl #16
 4024a10:	b9400023 	ldr	w3, [x1]
 4024a14:	b9500022 	ldr	w2, [x1, #4096]
 4024a18:	72000c63 	ands	w3, w3, #0xf
 4024a1c:	12000c42 	and	w2, w2, #0xf
 4024a20:	54000080 	b.eq	4024a30 <main_entry+0x828>  // b.none
 4024a24:	d2900001 	mov	x1, #0x8000                	// #32768
 4024a28:	f2a22281 	movk	x1, #0x1114, lsl #16
 4024a2c:	b9000020 	str	w0, [x1]
 4024a30:	340000a2 	cbz	w2, 4024a44 <main_entry+0x83c>
 4024a34:	d2920000 	mov	x0, #0x9000                	// #36864
 4024a38:	52800021 	mov	w1, #0x1                   	// #1
 4024a3c:	f2a22280 	movk	x0, #0x1114, lsl #16
 4024a40:	b9000001 	str	w1, [x0]
 4024a44:	d2925284 	mov	x4, #0x9294                	// #37524
 4024a48:	d2905285 	mov	x5, #0x8294                	// #33428
 4024a4c:	f2a22284 	movk	x4, #0x1114, lsl #16
 4024a50:	f2a22285 	movk	x5, #0x1114, lsl #16
 4024a54:	340020c3 	cbz	w3, 4024e6c <main_entry+0xc64>
 4024a58:	b94000a0 	ldr	w0, [x5]
 4024a5c:	12000000 	and	w0, w0, #0x1
 4024a60:	340005e2 	cbz	w2, 4024b1c <main_entry+0x914>
 4024a64:	b9400081 	ldr	w1, [x4]
 4024a68:	12000021 	and	w1, w1, #0x1
 4024a6c:	6a00003f 	tst	w1, w0
 4024a70:	54ffff20 	b.eq	4024a54 <main_entry+0x84c>  // b.none
 4024a74:	97fffd2f 	bl	4023f30 <get_random_num>
 4024a78:	d2884301 	mov	x1, #0x4218                	// #16920
 4024a7c:	f2a22041 	movk	x1, #0x1102, lsl #16
 4024a80:	b9000020 	str	w0, [x1]
 4024a84:	97fffd2b 	bl	4023f30 <get_random_num>
 4024a88:	d2884381 	mov	x1, #0x421c                	// #16924
 4024a8c:	f2a22041 	movk	x1, #0x1102, lsl #16
 4024a90:	b9000020 	str	w0, [x1]
 4024a94:	d2884400 	mov	x0, #0x4220                	// #16928
 4024a98:	f2a22040 	movk	x0, #0x1102, lsl #16
 4024a9c:	528000a1 	mov	w1, #0x5                   	// #5
 4024aa0:	b9000001 	str	w1, [x0]
 4024aa4:	d2884481 	mov	x1, #0x4224                	// #16932
 4024aa8:	f2a22041 	movk	x1, #0x1102, lsl #16
 4024aac:	52800020 	mov	w0, #0x1                   	// #1
 4024ab0:	b900003f 	str	wzr, [x1]
 4024ab4:	b9000020 	str	w0, [x1]
 4024ab8:	b9000420 	str	w0, [x1, #4]
 4024abc:	97fffd1d 	bl	4023f30 <get_random_num>
 4024ac0:	340000a3 	cbz	w3, 4024ad4 <main_entry+0x8cc>
 4024ac4:	d2900000 	mov	x0, #0x8000                	// #32768
 4024ac8:	52800041 	mov	w1, #0x2                   	// #2
 4024acc:	f2a22280 	movk	x0, #0x1114, lsl #16
 4024ad0:	b9000001 	str	w1, [x0]
 4024ad4:	340000a2 	cbz	w2, 4024ae8 <main_entry+0x8e0>
 4024ad8:	d2920000 	mov	x0, #0x9000                	// #36864
 4024adc:	52800041 	mov	w1, #0x2                   	// #2
 4024ae0:	f2a22280 	movk	x0, #0x1114, lsl #16
 4024ae4:	b9000001 	str	w1, [x0]
 4024ae8:	d2925284 	mov	x4, #0x9294                	// #37524
 4024aec:	d2905285 	mov	x5, #0x8294                	// #33428
 4024af0:	f2a22284 	movk	x4, #0x1114, lsl #16
 4024af4:	f2a22285 	movk	x5, #0x1114, lsl #16
 4024af8:	34001b43 	cbz	w3, 4024e60 <main_entry+0xc58>
 4024afc:	b94000a0 	ldr	w0, [x5]
 4024b00:	12000001 	and	w1, w0, #0x1
 4024b04:	34000102 	cbz	w2, 4024b24 <main_entry+0x91c>
 4024b08:	b9400080 	ldr	w0, [x4]
 4024b0c:	12000000 	and	w0, w0, #0x1
 4024b10:	2a010000 	orr	w0, w0, w1
 4024b14:	35ffff20 	cbnz	w0, 4024af8 <main_entry+0x8f0>
 4024b18:	17fffee3 	b	40246a4 <main_entry+0x49c>
 4024b1c:	52800021 	mov	w1, #0x1                   	// #1
 4024b20:	17ffffd3 	b	4024a6c <main_entry+0x864>
 4024b24:	52800000 	mov	w0, #0x0                   	// #0
 4024b28:	17fffffa 	b	4024b10 <main_entry+0x908>
 4024b2c:	94000180 	bl	402512c <get_uboot_info_download_ddr_addr>
 4024b30:	2a0003e0 	mov	w0, w0
 4024b34:	910063e1 	add	x1, sp, #0x18
 4024b38:	52a00202 	mov	w2, #0x100000              	// #1048576
 4024b3c:	94000c4e 	bl	4027c74 <copy_from_usb>
 4024b40:	7102941f 	cmp	w0, #0xa5
 4024b44:	54000060 	b.eq	4024b50 <main_entry+0x948>  // b.none
 4024b48:	52800e00 	mov	w0, #0x70                  	// #112
 4024b4c:	17fffee9 	b	40246f0 <main_entry+0x4e8>
 4024b50:	f9400ff7 	ldr	x23, [sp, #24]
 4024b54:	94000176 	bl	402512c <get_uboot_info_download_ddr_addr>
 4024b58:	b9402400 	ldr	w0, [x0, #36]
 4024b5c:	11080000 	add	w0, w0, #0x200
 4024b60:	eb20c2ff 	cmp	x23, w0, sxtw
 4024b64:	54ffdcc0 	b.eq	40246fc <main_entry+0x4f4>  // b.none
 4024b68:	52800880 	mov	w0, #0x44                  	// #68
 4024b6c:	17fffee1 	b	40246f0 <main_entry+0x4e8>
 4024b70:	350000b5 	cbnz	w21, 4024b84 <main_entry+0x97c>
 4024b74:	528970e0 	mov	w0, #0x4b87                	// #19335
 4024b78:	72ad34a0 	movk	w0, #0x69a5, lsl #16
 4024b7c:	6b00027f 	cmp	w19, w0
 4024b80:	54000121 	b.ne	4024ba4 <main_entry+0x99c>  // b.any
 4024b84:	2a1303e1 	mov	w1, w19
 4024b88:	91002280 	add	x0, x20, #0x8
 4024b8c:	97fffc7b 	bl	4023d78 <get_uboot_info_from_flash>
 4024b90:	7102941f 	cmp	w0, #0xa5
 4024b94:	54ffdb60 	b.eq	4024700 <main_entry+0x4f8>  // b.none
 4024b98:	52800100 	mov	w0, #0x8                   	// #8
 4024b9c:	97fffcee 	bl	4023f54 <failure_process>
 4024ba0:	17fffed8 	b	4024700 <main_entry+0x4f8>
 4024ba4:	d2800040 	mov	x0, #0x2                   	// #2
 4024ba8:	94000c6b 	bl	4027d54 <mdelay>
 4024bac:	94000c5a 	bl	4027d14 <timer_deinit>
 4024bb0:	d2800080 	mov	x0, #0x4                   	// #4
 4024bb4:	52800021 	mov	w1, #0x1                   	// #1
 4024bb8:	f2a22040 	movk	x0, #0x1102, lsl #16
 4024bbc:	b9000001 	str	w1, [x0]
 4024bc0:	b9000001 	str	w1, [x0]
 4024bc4:	b9000001 	str	w1, [x0]
 4024bc8:	17fffece 	b	4024700 <main_entry+0x4f8>
 4024bcc:	9400060c 	bl	40263fc <is_soc_tee_enable>
 4024bd0:	6b14001f 	cmp	w0, w20
 4024bd4:	b9404be0 	ldr	w0, [sp, #72]
 4024bd8:	54000121 	b.ne	4024bfc <main_entry+0x9f4>  // b.any
 4024bdc:	7102841f 	cmp	w0, #0xa1
 4024be0:	54000160 	b.eq	4024c0c <main_entry+0xa04>  // b.none
 4024be4:	52801620 	mov	w0, #0xb1                  	// #177
 4024be8:	910223e1 	add	x1, sp, #0x88
 4024bec:	29117fe0 	stp	w0, wzr, [sp, #136]
 4024bf0:	52800020 	mov	w0, #0x1                   	// #1
 4024bf4:	94000c83 	bl	4027e00 <ipc_send_msg>
 4024bf8:	17ffff3d 	b	40248ec <main_entry+0x6e4>
 4024bfc:	7102881f 	cmp	w0, #0xa2
 4024c00:	54000060 	b.eq	4024c0c <main_entry+0xa04>  // b.none
 4024c04:	52801640 	mov	w0, #0xb2                  	// #178
 4024c08:	17fffff8 	b	4024be8 <main_entry+0x9e0>
 4024c0c:	294a03f3 	ldp	w19, w0, [sp, #80]
 4024c10:	910223e1 	add	x1, sp, #0x88
 4024c14:	b0fffff4 	adrp	x20, 4021000 <hash_verify_buf-0xa80>
 4024c18:	aa138013 	orr	x19, x0, x19, lsl #32
 4024c1c:	52801400 	mov	w0, #0xa0                  	// #160
 4024c20:	29117fe0 	stp	w0, wzr, [sp, #136]
 4024c24:	52800020 	mov	w0, #0x1                   	// #1
 4024c28:	94000c76 	bl	4027e00 <ipc_send_msg>
 4024c2c:	940005f4 	bl	40263fc <is_soc_tee_enable>
 4024c30:	528d34a1 	mov	w1, #0x69a5                	// #27045
 4024c34:	72b86b41 	movk	w1, #0xc35a, lsl #16
 4024c38:	6b01001f 	cmp	w0, w1
 4024c3c:	54000501 	b.ne	4024cdc <main_entry+0xad4>  // b.any
 4024c40:	d2a80020 	mov	x0, #0x40010000            	// #1073807360
 4024c44:	eb00027f 	cmp	x19, x0
 4024c48:	54000240 	b.eq	4024c90 <main_entry+0xa88>  // b.none
 4024c4c:	aa1303e2 	mov	x2, x19
 4024c50:	52a00041 	mov	w1, #0x20000               	// #131072
 4024c54:	97fffb2c 	bl	4023904 <dma_copy>
 4024c58:	7102941f 	cmp	w0, #0xa5
 4024c5c:	540001a0 	b.eq	4024c90 <main_entry+0xa88>  // b.none
 4024c60:	d0000040 	adrp	x0, 402e000 <ddrtrn_hal_set_dq_type+0xc>
 4024c64:	913f8800 	add	x0, x0, #0xfe2
 4024c68:	94000c1f 	bl	4027ce4 <log_serial_puts>
 4024c6c:	d2800040 	mov	x0, #0x2                   	// #2
 4024c70:	94000c39 	bl	4027d54 <mdelay>
 4024c74:	94000c28 	bl	4027d14 <timer_deinit>
 4024c78:	d2800080 	mov	x0, #0x4                   	// #4
 4024c7c:	52800021 	mov	w1, #0x1                   	// #1
 4024c80:	f2a22040 	movk	x0, #0x1102, lsl #16
 4024c84:	b9000001 	str	w1, [x0]
 4024c88:	b9000001 	str	w1, [x0]
 4024c8c:	b9000001 	str	w1, [x0]
 4024c90:	d0000040 	adrp	x0, 402e000 <ddrtrn_hal_set_dq_type+0xc>
 4024c94:	913fdc00 	add	x0, x0, #0xff7
 4024c98:	94000c13 	bl	4027ce4 <log_serial_puts>
 4024c9c:	f94077e0 	ldr	x0, [sp, #232]
 4024ca0:	f9455281 	ldr	x1, [x20, #2720]
 4024ca4:	eb010000 	subs	x0, x0, x1
 4024ca8:	d2800001 	mov	x1, #0x0                   	// #0
 4024cac:	54000040 	b.eq	4024cb4 <main_entry+0xaac>  // b.none
 4024cb0:	97fffd2f 	bl	402416c <__stack_chk_fail>
 4024cb4:	d2800000 	mov	x0, #0x0                   	// #0
 4024cb8:	a94f53f3 	ldp	x19, x20, [sp, #240]
 4024cbc:	d2a80021 	mov	x1, #0x40010000            	// #1073807360
 4024cc0:	a9505bf5 	ldp	x21, x22, [sp, #256]
 4024cc4:	aa0103f0 	mov	x16, x1
 4024cc8:	a95163f7 	ldp	x23, x24, [sp, #272]
 4024ccc:	a9526bf9 	ldp	x25, x26, [sp, #288]
 4024cd0:	f9409bfe 	ldr	x30, [sp, #304]
 4024cd4:	910503ff 	add	sp, sp, #0x140
 4024cd8:	d61f0200 	br	x16
 4024cdc:	52800201 	mov	w1, #0x10                  	// #16
 4024ce0:	d2c00043 	mov	x3, #0x200000000           	// #8589934592
 4024ce4:	d2a80002 	mov	x2, #0x40000000            	// #1073741824
 4024ce8:	72aaaaa1 	movk	w1, #0x5555, lsl #16
 4024cec:	52800020 	mov	w0, #0x1                   	// #1
 4024cf0:	94000b25 	bl	4027984 <config_tzasc>
 4024cf4:	d2840003 	mov	x3, #0x2000                	// #8192
 4024cf8:	d29e0002 	mov	x2, #0xf000                	// #61440
 4024cfc:	52800201 	mov	w1, #0x10                  	// #16
 4024d00:	f2a80002 	movk	x2, #0x4000, lsl #16
 4024d04:	72aaa001 	movk	w1, #0x5500, lsl #16
 4024d08:	52800040 	mov	w0, #0x2                   	// #2
 4024d0c:	f2a02043 	movk	x3, #0x102, lsl #16
 4024d10:	94000b1d 	bl	4027984 <config_tzasc>
 4024d14:	d2840002 	mov	x2, #0x2000                	// #8192
 4024d18:	d29e0001 	mov	x1, #0xf000                	// #61440
 4024d1c:	f2a02042 	movk	x2, #0x102, lsl #16
 4024d20:	f2a80001 	movk	x1, #0x4000, lsl #16
 4024d24:	52800040 	mov	w0, #0x2                   	// #2
 4024d28:	94000ac2 	bl	4027830 <tzasc_sec_config_read_back>
 4024d2c:	7102941f 	cmp	w0, #0xa5
 4024d30:	54000201 	b.ne	4024d70 <main_entry+0xb68>  // b.any
 4024d34:	94000ade 	bl	40278ac <tzasc_bypass_disable>
 4024d38:	7102941f 	cmp	w0, #0xa5
 4024d3c:	540001a1 	b.ne	4024d70 <main_entry+0xb68>  // b.any
 4024d40:	aa1303e2 	mov	x2, x19
 4024d44:	52806001 	mov	w1, #0x300                 	// #768
 4024d48:	d2a82060 	mov	x0, #0x41030000            	// #1090715648
 4024d4c:	97fffaee 	bl	4023904 <dma_copy>
 4024d50:	7102941f 	cmp	w0, #0xa5
 4024d54:	54000121 	b.ne	4024d78 <main_entry+0xb70>  // b.any
 4024d58:	d2a82060 	mov	x0, #0x41030000            	// #1090715648
 4024d5c:	940003a1 	bl	4025be0 <handle_tee_key>
 4024d60:	7102941f 	cmp	w0, #0xa5
 4024d64:	54000480 	b.eq	4024df4 <main_entry+0xbec>  // b.none
 4024d68:	52800e60 	mov	w0, #0x73                  	// #115
 4024d6c:	14000002 	b	4024d74 <main_entry+0xb6c>
 4024d70:	52800dc0 	mov	w0, #0x6e                  	// #110
 4024d74:	97fffcc1 	bl	4024078 <err_print>
 4024d78:	d2902e01 	mov	x1, #0x8170                	// #33136
 4024d7c:	52800122 	mov	w2, #0x9                   	// #9
 4024d80:	f2a203c1 	movk	x1, #0x101e, lsl #16
 4024d84:	b9400020 	ldr	w0, [x1]
 4024d88:	121c6c00 	and	w0, w0, #0xfffffff0
 4024d8c:	2a020000 	orr	w0, w0, w2
 4024d90:	b9000020 	str	w0, [x1]
 4024d94:	d2800040 	mov	x0, #0x2                   	// #2
 4024d98:	94000bef 	bl	4027d54 <mdelay>
 4024d9c:	94000bde 	bl	4027d14 <timer_deinit>
 4024da0:	d2800080 	mov	x0, #0x4                   	// #4
 4024da4:	52800021 	mov	w1, #0x1                   	// #1
 4024da8:	f2a22040 	movk	x0, #0x1102, lsl #16
 4024dac:	b9000001 	str	w1, [x0]
 4024db0:	b9000001 	str	w1, [x0]
 4024db4:	b9000001 	str	w1, [x0]
 4024db8:	92800021 	mov	x1, #0xfffffffffffffffe    	// #-2
 4024dbc:	52800020 	mov	w0, #0x1                   	// #1
 4024dc0:	f2bf9fe1 	movk	x1, #0xfcff, lsl #16
 4024dc4:	72a06000 	movk	w0, #0x300, lsl #16
 4024dc8:	94000b63 	bl	4027b54 <uapi_drv_klad_rootkey_disable>
 4024dcc:	f0000040 	adrp	x0, 402f000 <malloc_sizes_ro+0x190>
 4024dd0:	91003000 	add	x0, x0, #0xc
 4024dd4:	94000bc4 	bl	4027ce4 <log_serial_puts>
 4024dd8:	f94077e0 	ldr	x0, [sp, #232]
 4024ddc:	f9455281 	ldr	x1, [x20, #2720]
 4024de0:	eb010000 	subs	x0, x0, x1
 4024de4:	d2800001 	mov	x1, #0x0                   	// #0
 4024de8:	54fff641 	b.ne	4024cb0 <main_entry+0xaa8>  // b.any
 4024dec:	d2a80060 	mov	x0, #0x40030000            	// #1073938432
 4024df0:	17ffffb2 	b	4024cb8 <main_entry+0xab0>
 4024df4:	d2802001 	mov	x1, #0x100                 	// #256
 4024df8:	d2a82060 	mov	x0, #0x41030000            	// #1090715648
 4024dfc:	f2a82061 	movk	x1, #0x4103, lsl #16
 4024e00:	940003bc 	bl	4025cf0 <handle_tee_info>
 4024e04:	7102941f 	cmp	w0, #0xa5
 4024e08:	54000060 	b.eq	4024e14 <main_entry+0xc0c>  // b.none
 4024e0c:	52800e80 	mov	w0, #0x74                  	// #116
 4024e10:	17ffffd9 	b	4024d74 <main_entry+0xb6c>
 4024e14:	d2802001 	mov	x1, #0x100                 	// #256
 4024e18:	aa1303e0 	mov	x0, x19
 4024e1c:	d2a80022 	mov	x2, #0x40010000            	// #1073807360
 4024e20:	f2a82061 	movk	x1, #0x4103, lsl #16
 4024e24:	94000424 	bl	4025eb4 <handle_atf_code>
 4024e28:	7102941f 	cmp	w0, #0xa5
 4024e2c:	54000060 	b.eq	4024e38 <main_entry+0xc30>  // b.none
 4024e30:	52800ea0 	mov	w0, #0x75                  	// #117
 4024e34:	17ffffd0 	b	4024d74 <main_entry+0xb6c>
 4024e38:	d29ffc82 	mov	x2, #0xffe4                	// #65508
 4024e3c:	d2802001 	mov	x1, #0x100                 	// #256
 4024e40:	aa1303e0 	mov	x0, x19
 4024e44:	f2a80042 	movk	x2, #0x4002, lsl #16
 4024e48:	f2a82061 	movk	x1, #0x4103, lsl #16
 4024e4c:	94000473 	bl	4026018 <handle_tee_code>
 4024e50:	7102941f 	cmp	w0, #0xa5
 4024e54:	54fffb20 	b.eq	4024db8 <main_entry+0xbb0>  // b.none
 4024e58:	52800ec0 	mov	w0, #0x76                  	// #118
 4024e5c:	17ffffc6 	b	4024d74 <main_entry+0xb6c>
 4024e60:	34ffc222 	cbz	w2, 40246a4 <main_entry+0x49c>
 4024e64:	52800001 	mov	w1, #0x0                   	// #0
 4024e68:	17ffff28 	b	4024b08 <main_entry+0x900>
 4024e6c:	34ffe042 	cbz	w2, 4024a74 <main_entry+0x86c>
 4024e70:	52800020 	mov	w0, #0x1                   	// #1
 4024e74:	17fffefc 	b	4024a64 <main_entry+0x85c>

0000000004024e78 <check_msid_ext>:
 4024e78:	d100c3ff 	sub	sp, sp, #0x30
 4024e7c:	d2800002 	mov	x2, #0x0                   	// #0
 4024e80:	a90153f3 	stp	x19, x20, [sp, #16]
 4024e84:	2a0003f3 	mov	w19, w0
 4024e88:	2a0103f4 	mov	w20, w1
 4024e8c:	f90013fe 	str	x30, [sp, #32]
 4024e90:	b0ffffe0 	adrp	x0, 4021000 <hash_verify_buf-0xa80>
 4024e94:	f9455001 	ldr	x1, [x0, #2720]
 4024e98:	f90007e1 	str	x1, [sp, #8]
 4024e9c:	d2800001 	mov	x1, #0x0                   	// #0
 4024ea0:	52800600 	mov	w0, #0x30                  	// #48
 4024ea4:	910013e1 	add	x1, sp, #0x4
 4024ea8:	94000b2f 	bl	4027b64 <uapi_drv_otp_read_word>
 4024eac:	7102941f 	cmp	w0, #0xa5
 4024eb0:	54000160 	b.eq	4024edc <check_msid_ext+0x64>  // b.none
 4024eb4:	52800bc0 	mov	w0, #0x5e                  	// #94
 4024eb8:	97fffc70 	bl	4024078 <err_print>
 4024ebc:	52800b40 	mov	w0, #0x5a                  	// #90
 4024ec0:	b0ffffe1 	adrp	x1, 4021000 <hash_verify_buf-0xa80>
 4024ec4:	f94007e2 	ldr	x2, [sp, #8]
 4024ec8:	f9455023 	ldr	x3, [x1, #2720]
 4024ecc:	eb030042 	subs	x2, x2, x3
 4024ed0:	d2800003 	mov	x3, #0x0                   	// #0
 4024ed4:	54000100 	b.eq	4024ef4 <check_msid_ext+0x7c>  // b.none
 4024ed8:	97fffca5 	bl	402416c <__stack_chk_fail>
 4024edc:	b94007e1 	ldr	w1, [sp, #4]
 4024ee0:	4a010273 	eor	w19, w19, w1
 4024ee4:	6a14027f 	tst	w19, w20
 4024ee8:	54fffec0 	b.eq	4024ec0 <check_msid_ext+0x48>  // b.none
 4024eec:	52800c40 	mov	w0, #0x62                  	// #98
 4024ef0:	17fffff2 	b	4024eb8 <check_msid_ext+0x40>
 4024ef4:	a94153f3 	ldp	x19, x20, [sp, #16]
 4024ef8:	f94013fe 	ldr	x30, [sp, #32]
 4024efc:	9100c3ff 	add	sp, sp, #0x30
 4024f00:	d65f03c0 	ret

0000000004024f04 <die_id_compare>:
 4024f04:	d10103ff 	sub	sp, sp, #0x40
 4024f08:	d2800203 	mov	x3, #0x10                  	// #16
 4024f0c:	d2800004 	mov	x4, #0x0                   	// #0
 4024f10:	52800002 	mov	w2, #0x0                   	// #0
 4024f14:	a90253f3 	stp	x19, x20, [sp, #32]
 4024f18:	aa0003f4 	mov	x20, x0
 4024f1c:	b0ffffe0 	adrp	x0, 4021000 <hash_verify_buf-0xa80>
 4024f20:	f9001bfe 	str	x30, [sp, #48]
 4024f24:	52800b53 	mov	w19, #0x5a                  	// #90
 4024f28:	f9455001 	ldr	x1, [x0, #2720]
 4024f2c:	f9000fe1 	str	x1, [sp, #24]
 4024f30:	d2800001 	mov	x1, #0x0                   	// #0
 4024f34:	910023e0 	add	x0, sp, #0x8
 4024f38:	aa0303e1 	mov	x1, x3
 4024f3c:	b90007f3 	str	w19, [sp, #4]
 4024f40:	94000b9d 	bl	4027db4 <memset_ss>
 4024f44:	b90007e0 	str	w0, [sp, #4]
 4024f48:	b94007e0 	ldr	w0, [sp, #4]
 4024f4c:	7102941f 	cmp	w0, #0xa5
 4024f50:	54000160 	b.eq	4024f7c <die_id_compare+0x78>  // b.none
 4024f54:	52800a20 	mov	w0, #0x51                  	// #81
 4024f58:	97fffc48 	bl	4024078 <err_print>
 4024f5c:	2a1303e0 	mov	w0, w19
 4024f60:	b0ffffe1 	adrp	x1, 4021000 <hash_verify_buf-0xa80>
 4024f64:	f9400fe2 	ldr	x2, [sp, #24]
 4024f68:	f9455023 	ldr	x3, [x1, #2720]
 4024f6c:	eb030042 	subs	x2, x2, x3
 4024f70:	d2800003 	mov	x3, #0x0                   	// #0
 4024f74:	540002c0 	b.eq	4024fcc <die_id_compare+0xc8>  // b.none
 4024f78:	97fffc7d 	bl	402416c <__stack_chk_fail>
 4024f7c:	910023e0 	add	x0, sp, #0x8
 4024f80:	d2800002 	mov	x2, #0x0                   	// #0
 4024f84:	52800201 	mov	w1, #0x10                  	// #16
 4024f88:	94000aff 	bl	4027b84 <uapi_drv_otp_get_die_id>
 4024f8c:	b94007e0 	ldr	w0, [sp, #4]
 4024f90:	7102941f 	cmp	w0, #0xa5
 4024f94:	54000060 	b.eq	4024fa0 <die_id_compare+0x9c>  // b.none
 4024f98:	52800c60 	mov	w0, #0x63                  	// #99
 4024f9c:	17ffffef 	b	4024f58 <die_id_compare+0x54>
 4024fa0:	910023e1 	add	x1, sp, #0x8
 4024fa4:	aa1403e0 	mov	x0, x20
 4024fa8:	d2800003 	mov	x3, #0x0                   	// #0
 4024fac:	d2800202 	mov	x2, #0x10                  	// #16
 4024fb0:	94000b79 	bl	4027d94 <memcmp_ss>
 4024fb4:	b90007e0 	str	w0, [sp, #4]
 4024fb8:	b94007e0 	ldr	w0, [sp, #4]
 4024fbc:	7102941f 	cmp	w0, #0xa5
 4024fc0:	54fffd00 	b.eq	4024f60 <die_id_compare+0x5c>  // b.none
 4024fc4:	52800c80 	mov	w0, #0x64                  	// #100
 4024fc8:	17ffffe4 	b	4024f58 <die_id_compare+0x54>
 4024fcc:	a94253f3 	ldp	x19, x20, [sp, #32]
 4024fd0:	f9401bfe 	ldr	x30, [sp, #48]
 4024fd4:	910103ff 	add	sp, sp, #0x40
 4024fd8:	d65f03c0 	ret

0000000004024fdc <count_bit_set>:
 4024fdc:	1e270000 	fmov	s0, w0
 4024fe0:	0e205800 	cnt	v0.8b, v0.8b
 4024fe4:	0e31b800 	addv	b0, v0.8b
 4024fe8:	1e260000 	fmov	w0, s0
 4024fec:	d65f03c0 	ret

0000000004024ff0 <check_version>:
 4024ff0:	d100c3ff 	sub	sp, sp, #0x30
 4024ff4:	a90153f3 	stp	x19, x20, [sp, #16]
 4024ff8:	2a0103f4 	mov	w20, w1
 4024ffc:	b0ffffe1 	adrp	x1, 4021000 <hash_verify_buf-0xa80>
 4025000:	f90013fe 	str	x30, [sp, #32]
 4025004:	2a0203f3 	mov	w19, w2
 4025008:	f9455022 	ldr	x2, [x1, #2720]
 402500c:	f90007e2 	str	x2, [sp, #8]
 4025010:	d2800002 	mov	x2, #0x0                   	// #0
 4025014:	910013e1 	add	x1, sp, #0x4
 4025018:	b90007ff 	str	wzr, [sp, #4]
 402501c:	94000ad2 	bl	4027b64 <uapi_drv_otp_read_word>
 4025020:	7102941f 	cmp	w0, #0xa5
 4025024:	54000160 	b.eq	4025050 <check_version+0x60>  // b.none
 4025028:	52800bc0 	mov	w0, #0x5e                  	// #94
 402502c:	97fffc13 	bl	4024078 <err_print>
 4025030:	52800b43 	mov	w3, #0x5a                  	// #90
 4025034:	90ffffe0 	adrp	x0, 4021000 <hash_verify_buf-0xa80>
 4025038:	f94007e1 	ldr	x1, [sp, #8]
 402503c:	f9455002 	ldr	x2, [x0, #2720]
 4025040:	eb020021 	subs	x1, x1, x2
 4025044:	d2800002 	mov	x2, #0x0                   	// #0
 4025048:	540001a0 	b.eq	402507c <check_version+0x8c>  // b.none
 402504c:	97fffc48 	bl	402416c <__stack_chk_fail>
 4025050:	2a0003e3 	mov	w3, w0
 4025054:	0a130280 	and	w0, w20, w19
 4025058:	97ffffe1 	bl	4024fdc <count_bit_set>
 402505c:	2a0003e1 	mov	w1, w0
 4025060:	b94007e0 	ldr	w0, [sp, #4]
 4025064:	0a000260 	and	w0, w19, w0
 4025068:	97ffffdd 	bl	4024fdc <count_bit_set>
 402506c:	6b00003f 	cmp	w1, w0
 4025070:	54fffe22 	b.cs	4025034 <check_version+0x44>  // b.hs, b.nlast
 4025074:	52800be0 	mov	w0, #0x5f                  	// #95
 4025078:	17ffffed 	b	402502c <check_version+0x3c>
 402507c:	2a0303e0 	mov	w0, w3
 4025080:	a94153f3 	ldp	x19, x20, [sp, #16]
 4025084:	f94013fe 	ldr	x30, [sp, #32]
 4025088:	9100c3ff 	add	sp, sp, #0x30
 402508c:	d65f03c0 	ret

0000000004025090 <get_gsl_code_info_addr>:
 4025090:	52858000 	mov	w0, #0x2c00                	// #11264
 4025094:	72a08040 	movk	w0, #0x402, lsl #16
 4025098:	d65f03c0 	ret

000000000402509c <get_gsl_code_addr>:
 402509c:	5285c000 	mov	w0, #0x2e00                	// #11776
 40250a0:	72a08040 	movk	w0, #0x402, lsl #16
 40250a4:	d65f03c0 	ret

00000000040250a8 <get_gsl_code_area_len>:
 40250a8:	d2858000 	mov	x0, #0x2c00                	// #11264
 40250ac:	f2a08040 	movk	x0, #0x402, lsl #16
 40250b0:	b9402400 	ldr	w0, [x0, #36]
 40250b4:	d65f03c0 	ret

00000000040250b8 <get_gsl_heap_addr>:
 40250b8:	d2858000 	mov	x0, #0x2c00                	// #11264
 40250bc:	f2a08040 	movk	x0, #0x402, lsl #16
 40250c0:	b9402401 	ldr	w1, [x0, #36]
 40250c4:	11080000 	add	w0, w0, #0x200
 40250c8:	0b000020 	add	w0, w1, w0
 40250cc:	f240241f 	tst	x0, #0x3ff
 40250d0:	540000a0 	b.eq	40250e4 <get_gsl_heap_addr+0x2c>  // b.none
 40250d4:	52864000 	mov	w0, #0x3200                	// #12800
 40250d8:	72a08040 	movk	w0, #0x402, lsl #16
 40250dc:	0b000020 	add	w0, w1, w0
 40250e0:	12165400 	and	w0, w0, #0xfffffc00
 40250e4:	d65f03c0 	ret

00000000040250e8 <get_gsl_heap_len>:
 40250e8:	52900000 	mov	w0, #0x8000                	// #32768
 40250ec:	d65f03c0 	ret

00000000040250f0 <get_ree_key_area_addr>:
 40250f0:	f81f0ffe 	str	x30, [sp, #-16]!
 40250f4:	97fffff1 	bl	40250b8 <get_gsl_heap_addr>
 40250f8:	11402000 	add	w0, w0, #0x8, lsl #12
 40250fc:	f84107fe 	ldr	x30, [sp], #16
 4025100:	d65f03c0 	ret

0000000004025104 <get_ddr_param_info_addr>:
 4025104:	f81f0ffe 	str	x30, [sp, #-16]!
 4025108:	97fffffa 	bl	40250f0 <get_ree_key_area_addr>
 402510c:	11040000 	add	w0, w0, #0x100
 4025110:	f84107fe 	ldr	x30, [sp], #16
 4025114:	d65f03c0 	ret

0000000004025118 <get_ddr_param_data_addr>:
 4025118:	f81f0ffe 	str	x30, [sp, #-16]!
 402511c:	97fffffa 	bl	4025104 <get_ddr_param_info_addr>
 4025120:	110c0000 	add	w0, w0, #0x300
 4025124:	f84107fe 	ldr	x30, [sp], #16
 4025128:	d65f03c0 	ret

000000000402512c <get_uboot_info_download_ddr_addr>:
 402512c:	d2a82000 	mov	x0, #0x41000000            	// #1090519040
 4025130:	d65f03c0 	ret

0000000004025134 <get_uboot_code_ddr_addr>:
 4025134:	d2804000 	mov	x0, #0x200                 	// #512
 4025138:	f2a82000 	movk	x0, #0x4100, lsl #16
 402513c:	d65f03c0 	ret

0000000004025140 <get_uboot_code_size>:
 4025140:	d2a82000 	mov	x0, #0x41000000            	// #1090519040
 4025144:	b9402400 	ldr	w0, [x0, #36]
 4025148:	d65f03c0 	ret

000000000402514c <get_uboot_entrypoint_ddr_addr>:
 402514c:	d2a82000 	mov	x0, #0x41000000            	// #1090519040
 4025150:	b9408800 	ldr	w0, [x0, #136]
 4025154:	d65f03c0 	ret

0000000004025158 <hash_compare>:
 4025158:	d10183ff 	sub	sp, sp, #0x60
 402515c:	d2800403 	mov	x3, #0x20                  	// #32
 4025160:	d2800004 	mov	x4, #0x0                   	// #0
 4025164:	a90353f3 	stp	x19, x20, [sp, #48]
 4025168:	52800b53 	mov	w19, #0x5a                  	// #90
 402516c:	aa0203f4 	mov	x20, x2
 4025170:	a9045bf5 	stp	x21, x22, [sp, #64]
 4025174:	aa0003f5 	mov	x21, x0
 4025178:	2a0103f6 	mov	w22, w1
 402517c:	f9002bfe 	str	x30, [sp, #80]
 4025180:	90ffffe0 	adrp	x0, 4021000 <hash_verify_buf-0xa80>
 4025184:	2a1303e2 	mov	w2, w19
 4025188:	f9455001 	ldr	x1, [x0, #2720]
 402518c:	f90017e1 	str	x1, [sp, #40]
 4025190:	d2800001 	mov	x1, #0x0                   	// #0
 4025194:	910023e0 	add	x0, sp, #0x8
 4025198:	aa0303e1 	mov	x1, x3
 402519c:	b90007f3 	str	w19, [sp, #4]
 40251a0:	94000b05 	bl	4027db4 <memset_ss>
 40251a4:	b90007e0 	str	w0, [sp, #4]
 40251a8:	b94007e0 	ldr	w0, [sp, #4]
 40251ac:	7102941f 	cmp	w0, #0xa5
 40251b0:	540001c1 	b.ne	40251e8 <hash_compare+0x90>  // b.any
 40251b4:	910023e2 	add	x2, sp, #0x8
 40251b8:	2a1603e1 	mov	w1, w22
 40251bc:	2a1503e0 	mov	w0, w21
 40251c0:	52800004 	mov	w4, #0x0                   	// #0
 40251c4:	52800403 	mov	w3, #0x20                  	// #32
 40251c8:	b90007f3 	str	w19, [sp, #4]
 40251cc:	97fff8f5 	bl	40235a0 <calc_hash>
 40251d0:	b90007e0 	str	w0, [sp, #4]
 40251d4:	b94007e0 	ldr	w0, [sp, #4]
 40251d8:	7102941f 	cmp	w0, #0xa5
 40251dc:	54000140 	b.eq	4025204 <hash_compare+0xac>  // b.none
 40251e0:	52800a40 	mov	w0, #0x52                  	// #82
 40251e4:	97fffba5 	bl	4024078 <err_print>
 40251e8:	90ffffe1 	adrp	x1, 4021000 <hash_verify_buf-0xa80>
 40251ec:	f94017e0 	ldr	x0, [sp, #40]
 40251f0:	f9455022 	ldr	x2, [x1, #2720]
 40251f4:	eb020000 	subs	x0, x0, x2
 40251f8:	d2800002 	mov	x2, #0x0                   	// #0
 40251fc:	54000200 	b.eq	402523c <hash_compare+0xe4>  // b.none
 4025200:	97fffbdb 	bl	402416c <__stack_chk_fail>
 4025204:	aa1403e1 	mov	x1, x20
 4025208:	910023e0 	add	x0, sp, #0x8
 402520c:	d2800003 	mov	x3, #0x0                   	// #0
 4025210:	d2800402 	mov	x2, #0x20                  	// #32
 4025214:	b90007f3 	str	w19, [sp, #4]
 4025218:	94000adf 	bl	4027d94 <memcmp_ss>
 402521c:	b90007e0 	str	w0, [sp, #4]
 4025220:	b94007e0 	ldr	w0, [sp, #4]
 4025224:	7102941f 	cmp	w0, #0xa5
 4025228:	54000060 	b.eq	4025234 <hash_compare+0xdc>  // b.none
 402522c:	52800aa0 	mov	w0, #0x55                  	// #85
 4025230:	17ffffed 	b	40251e4 <hash_compare+0x8c>
 4025234:	b94007f3 	ldr	w19, [sp, #4]
 4025238:	17ffffec 	b	40251e8 <hash_compare+0x90>
 402523c:	2a1303e0 	mov	w0, w19
 4025240:	a94353f3 	ldp	x19, x20, [sp, #48]
 4025244:	a9445bf5 	ldp	x21, x22, [sp, #64]
 4025248:	f9402bfe 	ldr	x30, [sp, #80]
 402524c:	910183ff 	add	sp, sp, #0x60
 4025250:	d65f03c0 	ret

0000000004025254 <secure_verify_area>:
 4025254:	d102c3ff 	sub	sp, sp, #0xb0
 4025258:	a90953f3 	stp	x19, x20, [sp, #144]
 402525c:	aa0003f4 	mov	x20, x0
 4025260:	90ffffe0 	adrp	x0, 4021000 <hash_verify_buf-0xa80>
 4025264:	a90a7bf5 	stp	x21, x30, [sp, #160]
 4025268:	52800b53 	mov	w19, #0x5a                  	// #90
 402526c:	52800415 	mov	w21, #0x20                  	// #32
 4025270:	f9455004 	ldr	x4, [x0, #2720]
 4025274:	f90047e4 	str	x4, [sp, #136]
 4025278:	d2800004 	mov	x4, #0x0                   	// #0
 402527c:	528f0b40 	mov	w0, #0x785a                	// #30810
 4025280:	b9000ff3 	str	w19, [sp, #12]
 4025284:	72b2d860 	movk	w0, #0x96c3, lsl #16
 4025288:	b9000ff3 	str	w19, [sp, #12]
 402528c:	b90013f3 	str	w19, [sp, #16]
 4025290:	b90017e0 	str	w0, [sp, #20]
 4025294:	91008060 	add	x0, x3, #0x20
 4025298:	b9001be2 	str	w2, [sp, #24]
 402529c:	f90013e1 	str	x1, [sp, #32]
 40252a0:	f9002be3 	str	x3, [sp, #80]
 40252a4:	f9002fe0 	str	x0, [sp, #88]
 40252a8:	b90063f5 	str	w21, [sp, #96]
 40252ac:	b40000f4 	cbz	x20, 40252c8 <secure_verify_area+0x74>
 40252b0:	b40000c3 	cbz	x3, 40252c8 <secure_verify_area+0x74>
 40252b4:	94000a38 	bl	4027b94 <uapi_drv_pke_init>
 40252b8:	7102941f 	cmp	w0, #0xa5
 40252bc:	54000240 	b.eq	4025304 <secure_verify_area+0xb0>  // b.none
 40252c0:	52800b20 	mov	w0, #0x59                  	// #89
 40252c4:	97fffb6d 	bl	4024078 <err_print>
 40252c8:	b9000ff3 	str	w19, [sp, #12]
 40252cc:	b9400fe0 	ldr	w0, [sp, #12]
 40252d0:	7102941f 	cmp	w0, #0xa5
 40252d4:	54000761 	b.ne	40253c0 <secure_verify_area+0x16c>  // b.any
 40252d8:	b9400fe0 	ldr	w0, [sp, #12]
 40252dc:	7102941f 	cmp	w0, #0xa5
 40252e0:	54000701 	b.ne	40253c0 <secure_verify_area+0x16c>  // b.any
 40252e4:	b9400fe0 	ldr	w0, [sp, #12]
 40252e8:	90ffffe1 	adrp	x1, 4021000 <hash_verify_buf-0xa80>
 40252ec:	f94047e2 	ldr	x2, [sp, #136]
 40252f0:	f9455023 	ldr	x3, [x1, #2720]
 40252f4:	eb030042 	subs	x2, x2, x3
 40252f8:	d2800003 	mov	x3, #0x0                   	// #0
 40252fc:	54000660 	b.eq	40253c8 <secure_verify_area+0x174>  // b.none
 4025300:	97fffb9b 	bl	402416c <__stack_chk_fail>
 4025304:	9101a3f3 	add	x19, sp, #0x68
 4025308:	a90353f3 	stp	x19, x20, [sp, #48]
 402530c:	91008294 	add	x20, x20, #0x20
 4025310:	f90023f4 	str	x20, [sp, #64]
 4025314:	528f0bb4 	mov	w20, #0x785d                	// #30813
 4025318:	9100a3e3 	add	x3, sp, #0x28
 402531c:	910143e2 	add	x2, sp, #0x50
 4025320:	9100e3e1 	add	x1, sp, #0x38
 4025324:	910063e0 	add	x0, sp, #0x18
 4025328:	52800004 	mov	w4, #0x0                   	// #0
 402532c:	72b2d874 	movk	w20, #0x96c3, lsl #16
 4025330:	b9002bf5 	str	w21, [sp, #40]
 4025334:	b9004bf5 	str	w21, [sp, #72]
 4025338:	97fff8f5 	bl	402370c <verify_signature>
 402533c:	b90013e0 	str	w0, [sp, #16]
 4025340:	b94013e0 	ldr	w0, [sp, #16]
 4025344:	7102941f 	cmp	w0, #0xa5
 4025348:	54000261 	b.ne	4025394 <secure_verify_area+0x140>  // b.any
 402534c:	f9402be0 	ldr	x0, [sp, #80]
 4025350:	aa1303e1 	mov	x1, x19
 4025354:	d2800003 	mov	x3, #0x0                   	// #0
 4025358:	d2800402 	mov	x2, #0x20                  	// #32
 402535c:	94000a8e 	bl	4027d94 <memcmp_ss>
 4025360:	b90013e0 	str	w0, [sp, #16]
 4025364:	b94013e0 	ldr	w0, [sp, #16]
 4025368:	7102941f 	cmp	w0, #0xa5
 402536c:	54000180 	b.eq	402539c <secure_verify_area+0x148>  // b.none
 4025370:	52800a80 	mov	w0, #0x54                  	// #84
 4025374:	97fffb41 	bl	4024078 <err_print>
 4025378:	94000a0b 	bl	4027ba4 <uapi_drv_pke_deinit>
 402537c:	7102941f 	cmp	w0, #0xa5
 4025380:	540001c0 	b.eq	40253b8 <secure_verify_area+0x164>  // b.none
 4025384:	52800b60 	mov	w0, #0x5b                  	// #91
 4025388:	52800b53 	mov	w19, #0x5a                  	// #90
 402538c:	97fffb3b 	bl	4024078 <err_print>
 4025390:	17ffffce 	b	40252c8 <secure_verify_area+0x74>
 4025394:	52800b40 	mov	w0, #0x5a                  	// #90
 4025398:	17fffff7 	b	4025374 <secure_verify_area+0x120>
 402539c:	b94017e0 	ldr	w0, [sp, #20]
 40253a0:	11000400 	add	w0, w0, #0x1
 40253a4:	b90017e0 	str	w0, [sp, #20]
 40253a8:	b94017e0 	ldr	w0, [sp, #20]
 40253ac:	6b14001f 	cmp	w0, w20
 40253b0:	54fffc89 	b.ls	4025340 <secure_verify_area+0xec>  // b.plast
 40253b4:	17fffff1 	b	4025378 <secure_verify_area+0x124>
 40253b8:	b94013f3 	ldr	w19, [sp, #16]
 40253bc:	17ffffc3 	b	40252c8 <secure_verify_area+0x74>
 40253c0:	52800b40 	mov	w0, #0x5a                  	// #90
 40253c4:	17ffffc9 	b	40252e8 <secure_verify_area+0x94>
 40253c8:	a94953f3 	ldp	x19, x20, [sp, #144]
 40253cc:	a94a7bf5 	ldp	x21, x30, [sp, #160]
 40253d0:	9102c3ff 	add	sp, sp, #0xb0
 40253d4:	d65f03c0 	ret

00000000040253d8 <lpds_hash_cmp>:
 40253d8:	d10143ff 	sub	sp, sp, #0x50
 40253dc:	a90353f3 	stp	x19, x20, [sp, #48]
 40253e0:	aa0103f3 	mov	x19, x1
 40253e4:	2a0203f4 	mov	w20, w2
 40253e8:	f90023fe 	str	x30, [sp, #64]
 40253ec:	90ffffe1 	adrp	x1, 4021000 <hash_verify_buf-0xa80>
 40253f0:	f9455022 	ldr	x2, [x1, #2720]
 40253f4:	f90017e2 	str	x2, [sp, #40]
 40253f8:	d2800002 	mov	x2, #0x0                   	// #0
 40253fc:	2a0003e1 	mov	w1, w0
 4025400:	52800402 	mov	w2, #0x20                  	// #32
 4025404:	910023e0 	add	x0, sp, #0x8
 4025408:	97fff750 	bl	4023148 <lpds_hash_get>
 402540c:	7102941f 	cmp	w0, #0xa5
 4025410:	54000141 	b.ne	4025438 <lpds_hash_cmp+0x60>  // b.any
 4025414:	910023e2 	add	x2, sp, #0x8
 4025418:	2a1403e1 	mov	w1, w20
 402541c:	aa1303e0 	mov	x0, x19
 4025420:	97ffff4e 	bl	4025158 <hash_compare>
 4025424:	7102941f 	cmp	w0, #0xa5
 4025428:	540000c0 	b.eq	4025440 <lpds_hash_cmp+0x68>  // b.none
 402542c:	d0000040 	adrp	x0, 402f000 <malloc_sizes_ro+0x190>
 4025430:	91009c00 	add	x0, x0, #0x27
 4025434:	94000a2c 	bl	4027ce4 <log_serial_puts>
 4025438:	52800b40 	mov	w0, #0x5a                  	// #90
 402543c:	14000007 	b	4025458 <lpds_hash_cmp+0x80>
 4025440:	910023e2 	add	x2, sp, #0x8
 4025444:	2a1403e1 	mov	w1, w20
 4025448:	aa1303e0 	mov	x0, x19
 402544c:	97ffff43 	bl	4025158 <hash_compare>
 4025450:	7102941f 	cmp	w0, #0xa5
 4025454:	54fffec1 	b.ne	402542c <lpds_hash_cmp+0x54>  // b.any
 4025458:	90ffffe1 	adrp	x1, 4021000 <hash_verify_buf-0xa80>
 402545c:	f94017e2 	ldr	x2, [sp, #40]
 4025460:	f9455023 	ldr	x3, [x1, #2720]
 4025464:	eb030042 	subs	x2, x2, x3
 4025468:	d2800003 	mov	x3, #0x0                   	// #0
 402546c:	54000040 	b.eq	4025474 <lpds_hash_cmp+0x9c>  // b.none
 4025470:	97fffb3f 	bl	402416c <__stack_chk_fail>
 4025474:	a94353f3 	ldp	x19, x20, [sp, #48]
 4025478:	f94023fe 	ldr	x30, [sp, #64]
 402547c:	910143ff 	add	sp, sp, #0x50
 4025480:	d65f03c0 	ret

0000000004025484 <get_ree_verify_enable_flag>:
 4025484:	d2902a80 	mov	x0, #0x8154                	// #33108
 4025488:	f2a203c0 	movk	x0, #0x101e, lsl #16
 402548c:	b9400000 	ldr	w0, [x0]
 4025490:	d3483c00 	ubfx	x0, x0, #8, #8
 4025494:	d65f03c0 	ret

0000000004025498 <get_tee_verify_enable_flag>:
 4025498:	d2902a80 	mov	x0, #0x8154                	// #33108
 402549c:	f2a203c0 	movk	x0, #0x101e, lsl #16
 40254a0:	b9400000 	ldr	w0, [x0]
 40254a4:	d65f03c0 	ret

00000000040254a8 <get_tp_verify_enable_flag>:
 40254a8:	d2902a80 	mov	x0, #0x8154                	// #33108
 40254ac:	f2a203c0 	movk	x0, #0x101e, lsl #16
 40254b0:	b9400000 	ldr	w0, [x0]
 40254b4:	d3505c00 	ubfx	x0, x0, #16, #8
 40254b8:	d65f03c0 	ret

00000000040254bc <handle_ree_key_area>:
 40254bc:	d2902a81 	mov	x1, #0x8154                	// #33108
 40254c0:	a9be53f3 	stp	x19, x20, [sp, #-32]!
 40254c4:	f2a203c1 	movk	x1, #0x101e, lsl #16
 40254c8:	b9400020 	ldr	w0, [x1]
 40254cc:	f9000bfe 	str	x30, [sp, #16]
 40254d0:	d3483c00 	ubfx	x0, x0, #8, #8
 40254d4:	7101081f 	cmp	w0, #0x42
 40254d8:	540000e1 	b.ne	40254f4 <handle_ree_key_area+0x38>  // b.any
 40254dc:	b9400020 	ldr	w0, [x1]
 40254e0:	d3483c00 	ubfx	x0, x0, #8, #8
 40254e4:	7101081f 	cmp	w0, #0x42
 40254e8:	54000a20 	b.eq	402562c <handle_ree_key_area+0x170>  // b.none
 40254ec:	52800b53 	mov	w19, #0x5a                  	// #90
 40254f0:	1400002d 	b	40255a4 <handle_ree_key_area+0xe8>
 40254f4:	97fffeff 	bl	40250f0 <get_ree_key_area_addr>
 40254f8:	2a0003f4 	mov	w20, w0
 40254fc:	528783c0 	mov	w0, #0x3c1e                	// #15390
 4025500:	72a963c0 	movk	w0, #0x4b1e, lsl #16
 4025504:	b9400281 	ldr	w1, [x20]
 4025508:	6b00003f 	cmp	w1, w0
 402550c:	54000301 	b.ne	402556c <handle_ree_key_area+0xb0>  // b.any
 4025510:	97fff6f7 	bl	40230ec <get_low_power_mode>
 4025514:	7101681f 	cmp	w0, #0x5a
 4025518:	54000300 	b.eq	4025578 <handle_ree_key_area+0xbc>  // b.none
 402551c:	d2902a01 	mov	x1, #0x8150                	// #33104
 4025520:	f2a203c1 	movk	x1, #0x101e, lsl #16
 4025524:	b9400020 	ldr	w0, [x1]
 4025528:	12000c00 	and	w0, w0, #0xf
 402552c:	7100141f 	cmp	w0, #0x5
 4025530:	54000421 	b.ne	40255b4 <handle_ree_key_area+0xf8>  // b.any
 4025534:	b9400020 	ldr	w0, [x1]
 4025538:	12000c00 	and	w0, w0, #0xf
 402553c:	7100141f 	cmp	w0, #0x5
 4025540:	540003a1 	b.ne	40255b4 <handle_ree_key_area+0xf8>  // b.any
 4025544:	d2834800 	mov	x0, #0x1a40                	// #6720
 4025548:	91030283 	add	x3, x20, #0xc0
 402554c:	aa1403e1 	mov	x1, x20
 4025550:	52801802 	mov	w2, #0xc0                  	// #192
 4025554:	f2a08040 	movk	x0, #0x402, lsl #16
 4025558:	97ffff3f 	bl	4025254 <secure_verify_area>
 402555c:	7102941f 	cmp	w0, #0xa5
 4025560:	540002e0 	b.eq	40255bc <handle_ree_key_area+0x100>  // b.none
 4025564:	52800ba0 	mov	w0, #0x5d                  	// #93
 4025568:	14000002 	b	4025570 <handle_ree_key_area+0xb4>
 402556c:	528008a0 	mov	w0, #0x45                  	// #69
 4025570:	97fffac2 	bl	4024078 <err_print>
 4025574:	17ffffde 	b	40254ec <handle_ree_key_area+0x30>
 4025578:	52801600 	mov	w0, #0xb0                  	// #176
 402557c:	aa1403e1 	mov	x1, x20
 4025580:	52801802 	mov	w2, #0xc0                  	// #192
 4025584:	72a22240 	movk	w0, #0x1112, lsl #16
 4025588:	97ffff94 	bl	40253d8 <lpds_hash_cmp>
 402558c:	2a0003f3 	mov	w19, w0
 4025590:	7102941f 	cmp	w0, #0xa5
 4025594:	54fffac1 	b.ne	40254ec <handle_ree_key_area+0x30>  // b.any
 4025598:	d0000040 	adrp	x0, 402f000 <malloc_sizes_ro+0x190>
 402559c:	9100dc00 	add	x0, x0, #0x37
 40255a0:	940009d1 	bl	4027ce4 <log_serial_puts>
 40255a4:	2a1303e0 	mov	w0, w19
 40255a8:	f9400bfe 	ldr	x30, [sp, #16]
 40255ac:	a8c253f3 	ldp	x19, x20, [sp], #32
 40255b0:	d65f03c0 	ret
 40255b4:	52800ac0 	mov	w0, #0x56                  	// #86
 40255b8:	17ffffee 	b	4025570 <handle_ree_key_area+0xb4>
 40255bc:	29448a81 	ldp	w1, w2, [x20, #36]
 40255c0:	d2803a00 	mov	x0, #0x1d0                 	// #464
 40255c4:	97fffe8b 	bl	4024ff0 <check_version>
 40255c8:	2a0003f3 	mov	w19, w0
 40255cc:	7102941f 	cmp	w0, #0xa5
 40255d0:	54000201 	b.ne	4025610 <handle_ree_key_area+0x154>  // b.any
 40255d4:	29458680 	ldp	w0, w1, [x20, #44]
 40255d8:	97fffe28 	bl	4024e78 <check_msid_ext>
 40255dc:	7102941f 	cmp	w0, #0xa5
 40255e0:	54fff861 	b.ne	40254ec <handle_ree_key_area+0x30>  // b.any
 40255e4:	b9403681 	ldr	w1, [x20, #52]
 40255e8:	5292dc20 	mov	w0, #0x96e1                	// #38625
 40255ec:	72a78f00 	movk	w0, #0x3c78, lsl #16
 40255f0:	6b00003f 	cmp	w1, w0
 40255f4:	54000120 	b.eq	4025618 <handle_ree_key_area+0x15c>  // b.none
 40255f8:	d2801600 	mov	x0, #0xb0                  	// #176
 40255fc:	f2a22240 	movk	x0, #0x1112, lsl #16
 4025600:	97fff828 	bl	40236a0 <store_hash_to_lpds>
 4025604:	52802000 	mov	w0, #0x100                 	// #256
 4025608:	97fff68b 	bl	4023034 <add_boot_img_size>
 402560c:	17ffffe6 	b	40255a4 <handle_ree_key_area+0xe8>
 4025610:	52800c20 	mov	w0, #0x61                  	// #97
 4025614:	17ffffd7 	b	4025570 <handle_ree_key_area+0xb4>
 4025618:	9100e280 	add	x0, x20, #0x38
 402561c:	97fffe3a 	bl	4024f04 <die_id_compare>
 4025620:	7102941f 	cmp	w0, #0xa5
 4025624:	54fff641 	b.ne	40254ec <handle_ree_key_area+0x30>  // b.any
 4025628:	17fffff4 	b	40255f8 <handle_ree_key_area+0x13c>
 402562c:	528014b3 	mov	w19, #0xa5                  	// #165
 4025630:	17ffffdd 	b	40255a4 <handle_ree_key_area+0xe8>

0000000004025634 <get_ddr_param_len>:
 4025634:	f81f0ffe 	str	x30, [sp, #-16]!
 4025638:	97fffeb3 	bl	4025104 <get_ddr_param_info_addr>
 402563c:	2a0003e0 	mov	w0, w0
 4025640:	f84107fe 	ldr	x30, [sp], #16
 4025644:	b9402400 	ldr	w0, [x0, #36]
 4025648:	d65f03c0 	ret

000000000402564c <get_ddr_param_data_end_addr>:
 402564c:	f81f0ffe 	str	x30, [sp, #-16]!
 4025650:	97fffeb2 	bl	4025118 <get_ddr_param_data_addr>
 4025654:	2a0003e2 	mov	w2, w0
 4025658:	97fffff7 	bl	4025634 <get_ddr_param_len>
 402565c:	0b000040 	add	w0, w2, w0
 4025660:	f240241f 	tst	x0, #0x3ff
 4025664:	54000060 	b.eq	4025670 <get_ddr_param_data_end_addr+0x24>  // b.none
 4025668:	11100000 	add	w0, w0, #0x400
 402566c:	12165400 	and	w0, w0, #0xfffffc00
 4025670:	f84107fe 	ldr	x30, [sp], #16
 4025674:	d65f03c0 	ret

0000000004025678 <get_ddr_param_cnt>:
 4025678:	f81f0ffe 	str	x30, [sp, #-16]!
 402567c:	97fffea2 	bl	4025104 <get_ddr_param_info_addr>
 4025680:	2a0003e0 	mov	w0, w0
 4025684:	f84107fe 	ldr	x30, [sp], #16
 4025688:	b9402800 	ldr	w0, [x0, #40]
 402568c:	d65f03c0 	ret

0000000004025690 <handle_ddr_param_info>:
 4025690:	a9be53f3 	stp	x19, x20, [sp, #-32]!
 4025694:	2a0003f3 	mov	w19, w0
 4025698:	a9017bf5 	stp	x21, x30, [sp, #16]
 402569c:	97fffe9a 	bl	4025104 <get_ddr_param_info_addr>
 40256a0:	2a0003f4 	mov	w20, w0
 40256a4:	97fffff5 	bl	4025678 <get_ddr_param_cnt>
 40256a8:	7100201f 	cmp	w0, #0x8
 40256ac:	54000129 	b.ls	40256d0 <handle_ddr_param_info+0x40>  // b.plast
 40256b0:	d0000040 	adrp	x0, 402f000 <malloc_sizes_ro+0x190>
 40256b4:	91013400 	add	x0, x0, #0x4d
 40256b8:	9400098b 	bl	4027ce4 <log_serial_puts>
 40256bc:	52800100 	mov	w0, #0x8                   	// #8
 40256c0:	940007e3 	bl	402764c <serial_put_hex>
 40256c4:	52800ca0 	mov	w0, #0x65                  	// #101
 40256c8:	97fffa6c 	bl	4024078 <err_print>
 40256cc:	1400000b 	b	40256f8 <handle_ddr_param_info+0x68>
 40256d0:	8b334293 	add	x19, x20, w19, uxtw
 40256d4:	2a0003f5 	mov	w21, w0
 40256d8:	3944b260 	ldrb	w0, [x19, #300]
 40256dc:	7103fc1f 	cmp	w0, #0xff
 40256e0:	54000101 	b.ne	4025700 <handle_ddr_param_info+0x70>  // b.any
 40256e4:	d0000040 	adrp	x0, 402f000 <malloc_sizes_ro+0x190>
 40256e8:	91017c00 	add	x0, x0, #0x5f
 40256ec:	9400097e 	bl	4027ce4 <log_serial_puts>
 40256f0:	3944b260 	ldrb	w0, [x19, #300]
 40256f4:	940007d6 	bl	402764c <serial_put_hex>
 40256f8:	52800b53 	mov	w19, #0x5a                  	// #90
 40256fc:	14000036 	b	40257d4 <handle_ddr_param_info+0x144>
 4025700:	6b0002bf 	cmp	w21, w0
 4025704:	540000c8 	b.hi	402571c <handle_ddr_param_info+0x8c>  // b.pmore
 4025708:	d0000040 	adrp	x0, 402f000 <malloc_sizes_ro+0x190>
 402570c:	91022800 	add	x0, x0, #0x8a
 4025710:	94000975 	bl	4027ce4 <log_serial_puts>
 4025714:	2a1503e0 	mov	w0, w21
 4025718:	17ffffea 	b	40256c0 <handle_ddr_param_info+0x30>
 402571c:	52878013 	mov	w19, #0x3c00                	// #15360
 4025720:	97ffffc5 	bl	4025634 <get_ddr_param_len>
 4025724:	6b13001f 	cmp	w0, w19
 4025728:	54000109 	b.ls	4025748 <handle_ddr_param_info+0xb8>  // b.plast
 402572c:	d0000040 	adrp	x0, 402f000 <malloc_sizes_ro+0x190>
 4025730:	91027000 	add	x0, x0, #0x9c
 4025734:	9400096c 	bl	4027ce4 <log_serial_puts>
 4025738:	2a1303e0 	mov	w0, w19
 402573c:	940007c4 	bl	402764c <serial_put_hex>
 4025740:	52800cc0 	mov	w0, #0x66                  	// #102
 4025744:	17ffffe1 	b	40256c8 <handle_ddr_param_info+0x38>
 4025748:	34ffffc0 	cbz	w0, 4025740 <handle_ddr_param_info+0xb0>
 402574c:	b9402280 	ldr	w0, [x20, #32]
 4025750:	7104001f 	cmp	w0, #0x100
 4025754:	540000a0 	b.eq	4025768 <handle_ddr_param_info+0xd8>  // b.none
 4025758:	d0000040 	adrp	x0, 402f000 <malloc_sizes_ro+0x190>
 402575c:	9102bc00 	add	x0, x0, #0xaf
 4025760:	94000961 	bl	4027ce4 <log_serial_puts>
 4025764:	17ffffe5 	b	40256f8 <handle_ddr_param_info+0x68>
 4025768:	b9400281 	ldr	w1, [x20]
 402576c:	5294a5a0 	mov	w0, #0xa52d                	// #42285
 4025770:	72a970e0 	movk	w0, #0x4b87, lsl #16
 4025774:	6b00003f 	cmp	w1, w0
 4025778:	54000361 	b.ne	40257e4 <handle_ddr_param_info+0x154>  // b.any
 402577c:	d2902a95 	mov	x21, #0x8154                	// #33108
 4025780:	f2a203d5 	movk	x21, #0x101e, lsl #16
 4025784:	b94002a0 	ldr	w0, [x21]
 4025788:	d3483c00 	ubfx	x0, x0, #8, #8
 402578c:	7101081f 	cmp	w0, #0x42
 4025790:	540002e0 	b.eq	40257ec <handle_ddr_param_info+0x15c>  // b.none
 4025794:	97fffe57 	bl	40250f0 <get_ree_key_area_addr>
 4025798:	2a0003f3 	mov	w19, w0
 402579c:	97fff654 	bl	40230ec <get_low_power_mode>
 40257a0:	7101681f 	cmp	w0, #0x5a
 40257a4:	54000301 	b.ne	4025804 <handle_ddr_param_info+0x174>  // b.any
 40257a8:	52801a00 	mov	w0, #0xd0                  	// #208
 40257ac:	aa1403e1 	mov	x1, x20
 40257b0:	52803002 	mov	w2, #0x180                 	// #384
 40257b4:	72a22240 	movk	w0, #0x1112, lsl #16
 40257b8:	97ffff08 	bl	40253d8 <lpds_hash_cmp>
 40257bc:	2a0003f3 	mov	w19, w0
 40257c0:	7102941f 	cmp	w0, #0xa5
 40257c4:	54fff9a1 	b.ne	40256f8 <handle_ddr_param_info+0x68>  // b.any
 40257c8:	d0000040 	adrp	x0, 402f000 <malloc_sizes_ro+0x190>
 40257cc:	91032400 	add	x0, x0, #0xc9
 40257d0:	94000945 	bl	4027ce4 <log_serial_puts>
 40257d4:	2a1303e0 	mov	w0, w19
 40257d8:	a9417bf5 	ldp	x21, x30, [sp, #16]
 40257dc:	a8c253f3 	ldp	x19, x20, [sp], #32
 40257e0:	d65f03c0 	ret
 40257e4:	528008a0 	mov	w0, #0x45                  	// #69
 40257e8:	17ffffb8 	b	40256c8 <handle_ddr_param_info+0x38>
 40257ec:	b94002a0 	ldr	w0, [x21]
 40257f0:	d3483c00 	ubfx	x0, x0, #8, #8
 40257f4:	7101081f 	cmp	w0, #0x42
 40257f8:	54fff801 	b.ne	40256f8 <handle_ddr_param_info+0x68>  // b.any
 40257fc:	528014b3 	mov	w19, #0xa5                  	// #165
 4025800:	17fffff5 	b	40257d4 <handle_ddr_param_info+0x144>
 4025804:	b94002a0 	ldr	w0, [x21]
 4025808:	d3505c00 	ubfx	x0, x0, #16, #8
 402580c:	7101081f 	cmp	w0, #0x42
 4025810:	54000160 	b.eq	402583c <handle_ddr_param_info+0x1ac>  // b.none
 4025814:	d2857000 	mov	x0, #0x2b80                	// #11136
 4025818:	91070283 	add	x3, x20, #0x1c0
 402581c:	aa1403e1 	mov	x1, x20
 4025820:	52803802 	mov	w2, #0x1c0                 	// #448
 4025824:	f2a08040 	movk	x0, #0x402, lsl #16
 4025828:	97fffe8b 	bl	4025254 <secure_verify_area>
 402582c:	7102941f 	cmp	w0, #0xa5
 4025830:	54000060 	b.eq	402583c <handle_ddr_param_info+0x1ac>  // b.none
 4025834:	52800b80 	mov	w0, #0x5c                  	// #92
 4025838:	17ffffa4 	b	40256c8 <handle_ddr_param_info+0x38>
 402583c:	91060283 	add	x3, x20, #0x180
 4025840:	aa1403e1 	mov	x1, x20
 4025844:	91020260 	add	x0, x19, #0x80
 4025848:	52803002 	mov	w2, #0x180                 	// #384
 402584c:	97fffe82 	bl	4025254 <secure_verify_area>
 4025850:	7102941f 	cmp	w0, #0xa5
 4025854:	54000261 	b.ne	40258a0 <handle_ddr_param_info+0x210>  // b.any
 4025858:	b9402a62 	ldr	w2, [x19, #40]
 402585c:	d2803980 	mov	x0, #0x1cc                 	// #460
 4025860:	b9401281 	ldr	w1, [x20, #16]
 4025864:	97fffde3 	bl	4024ff0 <check_version>
 4025868:	2a0003f3 	mov	w19, w0
 402586c:	7102941f 	cmp	w0, #0xa5
 4025870:	540001c1 	b.ne	40258a8 <handle_ddr_param_info+0x218>  // b.any
 4025874:	29430680 	ldp	w0, w1, [x20, #24]
 4025878:	97fffd80 	bl	4024e78 <check_msid_ext>
 402587c:	7102941f 	cmp	w0, #0xa5
 4025880:	54fff3c1 	b.ne	40256f8 <handle_ddr_param_info+0x68>  // b.any
 4025884:	d2801a00 	mov	x0, #0xd0                  	// #208
 4025888:	f2a22240 	movk	x0, #0x1112, lsl #16
 402588c:	97fff785 	bl	40236a0 <store_hash_to_lpds>
 4025890:	b9402280 	ldr	w0, [x20, #32]
 4025894:	11080000 	add	w0, w0, #0x200
 4025898:	97fff5e7 	bl	4023034 <add_boot_img_size>
 402589c:	17ffffce 	b	40257d4 <handle_ddr_param_info+0x144>
 40258a0:	52800ba0 	mov	w0, #0x5d                  	// #93
 40258a4:	17ffff89 	b	40256c8 <handle_ddr_param_info+0x38>
 40258a8:	52800c20 	mov	w0, #0x61                  	// #97
 40258ac:	17ffff87 	b	40256c8 <handle_ddr_param_info+0x38>

00000000040258b0 <handle_ddr_param>:
 40258b0:	d2902a81 	mov	x1, #0x8154                	// #33108
 40258b4:	a9be53f3 	stp	x19, x20, [sp, #-32]!
 40258b8:	f2a203c1 	movk	x1, #0x101e, lsl #16
 40258bc:	2a0003f3 	mov	w19, w0
 40258c0:	a9017bf5 	stp	x21, x30, [sp, #16]
 40258c4:	b9400020 	ldr	w0, [x1]
 40258c8:	d3483c00 	ubfx	x0, x0, #8, #8
 40258cc:	7101081f 	cmp	w0, #0x42
 40258d0:	540000e1 	b.ne	40258ec <handle_ddr_param+0x3c>  // b.any
 40258d4:	b9400020 	ldr	w0, [x1]
 40258d8:	d3483c00 	ubfx	x0, x0, #8, #8
 40258dc:	7101081f 	cmp	w0, #0x42
 40258e0:	540004a0 	b.eq	4025974 <handle_ddr_param+0xc4>  // b.none
 40258e4:	52800b53 	mov	w19, #0x5a                  	// #90
 40258e8:	1400001c 	b	4025958 <handle_ddr_param+0xa8>
 40258ec:	97fffe06 	bl	4025104 <get_ddr_param_info_addr>
 40258f0:	2a0003f4 	mov	w20, w0
 40258f4:	8b204260 	add	x0, x19, w0, uxtw
 40258f8:	b9402a81 	ldr	w1, [x20, #40]
 40258fc:	3944b000 	ldrb	w0, [x0, #300]
 4025900:	6b00003f 	cmp	w1, w0
 4025904:	54000329 	b.ls	4025968 <handle_ddr_param+0xb8>  // b.plast
 4025908:	97fffe04 	bl	4025118 <get_ddr_param_data_addr>
 402590c:	8b131693 	add	x19, x20, x19, lsl #5
 4025910:	b9402681 	ldr	w1, [x20, #36]
 4025914:	2a0003f5 	mov	w21, w0
 4025918:	9100b273 	add	x19, x19, #0x2c
 402591c:	aa1503e0 	mov	x0, x21
 4025920:	aa1303e2 	mov	x2, x19
 4025924:	97fffe0d 	bl	4025158 <hash_compare>
 4025928:	7102941f 	cmp	w0, #0xa5
 402592c:	54fffdc1 	b.ne	40258e4 <handle_ddr_param+0x34>  // b.any
 4025930:	b9402681 	ldr	w1, [x20, #36]
 4025934:	aa1303e2 	mov	x2, x19
 4025938:	aa1503e0 	mov	x0, x21
 402593c:	97fffe07 	bl	4025158 <hash_compare>
 4025940:	2a0003f3 	mov	w19, w0
 4025944:	7102941f 	cmp	w0, #0xa5
 4025948:	54fffce1 	b.ne	40258e4 <handle_ddr_param+0x34>  // b.any
 402594c:	29448680 	ldp	w0, w1, [x20, #36]
 4025950:	1b007c20 	mul	w0, w1, w0
 4025954:	97fff5b8 	bl	4023034 <add_boot_img_size>
 4025958:	2a1303e0 	mov	w0, w19
 402595c:	a9417bf5 	ldp	x21, x30, [sp, #16]
 4025960:	a8c253f3 	ldp	x19, x20, [sp], #32
 4025964:	d65f03c0 	ret
 4025968:	52800ca0 	mov	w0, #0x65                  	// #101
 402596c:	97fff9c3 	bl	4024078 <err_print>
 4025970:	17ffffdd 	b	40258e4 <handle_ddr_param+0x34>
 4025974:	528014b3 	mov	w19, #0xa5                  	// #165
 4025978:	17fffff8 	b	4025958 <handle_ddr_param+0xa8>

000000000402597c <handle_uboot_info>:
 402597c:	a9be53f3 	stp	x19, x20, [sp, #-32]!
 4025980:	d2a82014 	mov	x20, #0x41000000            	// #1090519040
 4025984:	5283c5a0 	mov	w0, #0x1e2d                	// #7725
 4025988:	b9400281 	ldr	w1, [x20]
 402598c:	72a97e00 	movk	w0, #0x4bf0, lsl #16
 4025990:	a9017bf5 	stp	x21, x30, [sp, #16]
 4025994:	6b00003f 	cmp	w1, w0
 4025998:	54000361 	b.ne	4025a04 <handle_uboot_info+0x88>  // b.any
 402599c:	d2902a95 	mov	x21, #0x8154                	// #33108
 40259a0:	f2a203d5 	movk	x21, #0x101e, lsl #16
 40259a4:	b94002a0 	ldr	w0, [x21]
 40259a8:	d3483c00 	ubfx	x0, x0, #8, #8
 40259ac:	7101081f 	cmp	w0, #0x42
 40259b0:	54000300 	b.eq	4025a10 <handle_uboot_info+0x94>  // b.none
 40259b4:	97fffdcf 	bl	40250f0 <get_ree_key_area_addr>
 40259b8:	2a0003f3 	mov	w19, w0
 40259bc:	97fff5cc 	bl	40230ec <get_low_power_mode>
 40259c0:	7101681f 	cmp	w0, #0x5a
 40259c4:	54000321 	b.ne	4025a28 <handle_uboot_info+0xac>  // b.any
 40259c8:	52801e00 	mov	w0, #0xf0                  	// #240
 40259cc:	aa1403e1 	mov	x1, x20
 40259d0:	52803002 	mov	w2, #0x180                 	// #384
 40259d4:	72a22240 	movk	w0, #0x1112, lsl #16
 40259d8:	97fffe80 	bl	40253d8 <lpds_hash_cmp>
 40259dc:	2a0003f3 	mov	w19, w0
 40259e0:	7102941f 	cmp	w0, #0xa5
 40259e4:	540001e1 	b.ne	4025a20 <handle_uboot_info+0xa4>  // b.any
 40259e8:	d0000040 	adrp	x0, 402f000 <malloc_sizes_ro+0x190>
 40259ec:	91037400 	add	x0, x0, #0xdd
 40259f0:	940008bd 	bl	4027ce4 <log_serial_puts>
 40259f4:	2a1303e0 	mov	w0, w19
 40259f8:	a9417bf5 	ldp	x21, x30, [sp, #16]
 40259fc:	a8c253f3 	ldp	x19, x20, [sp], #32
 4025a00:	d65f03c0 	ret
 4025a04:	528008a0 	mov	w0, #0x45                  	// #69
 4025a08:	97fff99c 	bl	4024078 <err_print>
 4025a0c:	14000005 	b	4025a20 <handle_uboot_info+0xa4>
 4025a10:	b94002a0 	ldr	w0, [x21]
 4025a14:	d3483c00 	ubfx	x0, x0, #8, #8
 4025a18:	7101081f 	cmp	w0, #0x42
 4025a1c:	54000600 	b.eq	4025adc <handle_uboot_info+0x160>  // b.none
 4025a20:	52800b53 	mov	w19, #0x5a                  	// #90
 4025a24:	17fffff4 	b	40259f4 <handle_uboot_info+0x78>
 4025a28:	b94002a0 	ldr	w0, [x21]
 4025a2c:	d3505c00 	ubfx	x0, x0, #16, #8
 4025a30:	7101081f 	cmp	w0, #0x42
 4025a34:	54000180 	b.eq	4025a64 <handle_uboot_info+0xe8>  // b.none
 4025a38:	d2803803 	mov	x3, #0x1c0                 	// #448
 4025a3c:	d2857000 	mov	x0, #0x2b80                	// #11136
 4025a40:	aa1403e1 	mov	x1, x20
 4025a44:	f2a82003 	movk	x3, #0x4100, lsl #16
 4025a48:	52803802 	mov	w2, #0x1c0                 	// #448
 4025a4c:	f2a08040 	movk	x0, #0x402, lsl #16
 4025a50:	97fffe01 	bl	4025254 <secure_verify_area>
 4025a54:	7102941f 	cmp	w0, #0xa5
 4025a58:	54000060 	b.eq	4025a64 <handle_uboot_info+0xe8>  // b.none
 4025a5c:	52800b80 	mov	w0, #0x5c                  	// #92
 4025a60:	17ffffea 	b	4025a08 <handle_uboot_info+0x8c>
 4025a64:	2a1303e0 	mov	w0, w19
 4025a68:	d2803003 	mov	x3, #0x180                 	// #384
 4025a6c:	91020000 	add	x0, x0, #0x80
 4025a70:	f2a82003 	movk	x3, #0x4100, lsl #16
 4025a74:	52803002 	mov	w2, #0x180                 	// #384
 4025a78:	d2a82001 	mov	x1, #0x41000000            	// #1090519040
 4025a7c:	97fffdf6 	bl	4025254 <secure_verify_area>
 4025a80:	7102941f 	cmp	w0, #0xa5
 4025a84:	54000241 	b.ne	4025acc <handle_uboot_info+0x150>  // b.any
 4025a88:	d2a82014 	mov	x20, #0x41000000            	// #1090519040
 4025a8c:	d2803a00 	mov	x0, #0x1d0                 	// #464
 4025a90:	29420a81 	ldp	w1, w2, [x20, #16]
 4025a94:	97fffd57 	bl	4024ff0 <check_version>
 4025a98:	2a0003f3 	mov	w19, w0
 4025a9c:	7102941f 	cmp	w0, #0xa5
 4025aa0:	540001a1 	b.ne	4025ad4 <handle_uboot_info+0x158>  // b.any
 4025aa4:	29430680 	ldp	w0, w1, [x20, #24]
 4025aa8:	97fffcf4 	bl	4024e78 <check_msid_ext>
 4025aac:	7102941f 	cmp	w0, #0xa5
 4025ab0:	54fffb81 	b.ne	4025a20 <handle_uboot_info+0xa4>  // b.any
 4025ab4:	d2801e00 	mov	x0, #0xf0                  	// #240
 4025ab8:	f2a22240 	movk	x0, #0x1112, lsl #16
 4025abc:	97fff6f9 	bl	40236a0 <store_hash_to_lpds>
 4025ac0:	52804000 	mov	w0, #0x200                 	// #512
 4025ac4:	97fff55c 	bl	4023034 <add_boot_img_size>
 4025ac8:	17ffffcb 	b	40259f4 <handle_uboot_info+0x78>
 4025acc:	52800ba0 	mov	w0, #0x5d                  	// #93
 4025ad0:	17ffffce 	b	4025a08 <handle_uboot_info+0x8c>
 4025ad4:	52800c20 	mov	w0, #0x61                  	// #97
 4025ad8:	17ffffcc 	b	4025a08 <handle_uboot_info+0x8c>
 4025adc:	528014b3 	mov	w19, #0xa5                  	// #165
 4025ae0:	17ffffc5 	b	40259f4 <handle_uboot_info+0x78>

0000000004025ae4 <handle_uboot_code>:
 4025ae4:	a9be53f3 	stp	x19, x20, [sp, #-32]!
 4025ae8:	a9017bf5 	stp	x21, x30, [sp, #16]
 4025aec:	d2a82015 	mov	x21, #0x41000000            	// #1090519040
 4025af0:	b94026b4 	ldr	w20, [x21, #36]
 4025af4:	b9408ab3 	ldr	w19, [x21, #136]
 4025af8:	94000263 	bl	4026484 <is_ree_boot_dec_en_enable>
 4025afc:	528d34a1 	mov	w1, #0x69a5                	// #27045
 4025b00:	72b86b41 	movk	w1, #0xc35a, lsl #16
 4025b04:	6b01001f 	cmp	w0, w1
 4025b08:	540000c1 	b.ne	4025b20 <handle_uboot_code+0x3c>  // b.any
 4025b0c:	b9404aa1 	ldr	w1, [x21, #72]
 4025b10:	5292dc20 	mov	w0, #0x96e1                	// #38625
 4025b14:	72a78f00 	movk	w0, #0x3c78, lsl #16
 4025b18:	6b00003f 	cmp	w1, w0
 4025b1c:	54000240 	b.eq	4025b64 <handle_uboot_code+0x80>  // b.none
 4025b20:	d2800901 	mov	x1, #0x48                  	// #72
 4025b24:	52800080 	mov	w0, #0x4                   	// #4
 4025b28:	2a1403e4 	mov	w4, w20
 4025b2c:	aa1303e3 	mov	x3, x19
 4025b30:	aa1303e2 	mov	x2, x19
 4025b34:	f2a82001 	movk	x1, #0x4100, lsl #16
 4025b38:	72a06000 	movk	w0, #0x300, lsl #16
 4025b3c:	97fff5b8 	bl	402321c <decrypt_data>
 4025b40:	7102941f 	cmp	w0, #0xa5
 4025b44:	54000100 	b.eq	4025b64 <handle_uboot_code+0x80>  // b.none
 4025b48:	52800a00 	mov	w0, #0x50                  	// #80
 4025b4c:	97fff94b 	bl	4024078 <err_print>
 4025b50:	52800b53 	mov	w19, #0x5a                  	// #90
 4025b54:	2a1303e0 	mov	w0, w19
 4025b58:	a9417bf5 	ldp	x21, x30, [sp, #16]
 4025b5c:	a8c253f3 	ldp	x19, x20, [sp], #32
 4025b60:	d65f03c0 	ret
 4025b64:	d2902a81 	mov	x1, #0x8154                	// #33108
 4025b68:	f2a203c1 	movk	x1, #0x101e, lsl #16
 4025b6c:	b9400020 	ldr	w0, [x1]
 4025b70:	d3483c00 	ubfx	x0, x0, #8, #8
 4025b74:	7101081f 	cmp	w0, #0x42
 4025b78:	54000280 	b.eq	4025bc8 <handle_uboot_code+0xe4>  // b.none
 4025b7c:	d2800502 	mov	x2, #0x28                  	// #40
 4025b80:	2a1403e1 	mov	w1, w20
 4025b84:	aa1303e0 	mov	x0, x19
 4025b88:	f2a82002 	movk	x2, #0x4100, lsl #16
 4025b8c:	97fffd73 	bl	4025158 <hash_compare>
 4025b90:	7102941f 	cmp	w0, #0xa5
 4025b94:	54fffde1 	b.ne	4025b50 <handle_uboot_code+0x6c>  // b.any
 4025b98:	d2800502 	mov	x2, #0x28                  	// #40
 4025b9c:	aa1303e0 	mov	x0, x19
 4025ba0:	2a1403e1 	mov	w1, w20
 4025ba4:	f2a82002 	movk	x2, #0x4100, lsl #16
 4025ba8:	97fffd6c 	bl	4025158 <hash_compare>
 4025bac:	2a0003f3 	mov	w19, w0
 4025bb0:	7102941f 	cmp	w0, #0xa5
 4025bb4:	54fffce1 	b.ne	4025b50 <handle_uboot_code+0x6c>  // b.any
 4025bb8:	d2a82000 	mov	x0, #0x41000000            	// #1090519040
 4025bbc:	b9402400 	ldr	w0, [x0, #36]
 4025bc0:	97fff51d 	bl	4023034 <add_boot_img_size>
 4025bc4:	17ffffe4 	b	4025b54 <handle_uboot_code+0x70>
 4025bc8:	b9400020 	ldr	w0, [x1]
 4025bcc:	d3483c00 	ubfx	x0, x0, #8, #8
 4025bd0:	7101081f 	cmp	w0, #0x42
 4025bd4:	54fffbe1 	b.ne	4025b50 <handle_uboot_code+0x6c>  // b.any
 4025bd8:	528014b3 	mov	w19, #0xa5                  	// #165
 4025bdc:	17ffffde 	b	4025b54 <handle_uboot_code+0x70>

0000000004025be0 <handle_tee_key>:
 4025be0:	a9be53f3 	stp	x19, x20, [sp, #-32]!
 4025be4:	528d34b4 	mov	w20, #0x69a5                	// #27045
 4025be8:	72b86b54 	movk	w20, #0xc35a, lsl #16
 4025bec:	aa0003f3 	mov	x19, x0
 4025bf0:	f9000bfe 	str	x30, [sp, #16]
 4025bf4:	94000202 	bl	40263fc <is_soc_tee_enable>
 4025bf8:	6b14001f 	cmp	w0, w20
 4025bfc:	54000200 	b.eq	4025c3c <handle_tee_key+0x5c>  // b.none
 4025c00:	d2902a80 	mov	x0, #0x8154                	// #33108
 4025c04:	f2a203c0 	movk	x0, #0x101e, lsl #16
 4025c08:	b9400000 	ldr	w0, [x0]
 4025c0c:	12001c00 	and	w0, w0, #0xff
 4025c10:	7101081f 	cmp	w0, #0x42
 4025c14:	54000140 	b.eq	4025c3c <handle_tee_key+0x5c>  // b.none
 4025c18:	b9400261 	ldr	w1, [x19]
 4025c1c:	5281e3c0 	mov	w0, #0xf1e                 	// #3870
 4025c20:	72a97c20 	movk	w0, #0x4be1, lsl #16
 4025c24:	6b00003f 	cmp	w1, w0
 4025c28:	54000260 	b.eq	4025c74 <handle_tee_key+0x94>  // b.none
 4025c2c:	528008a0 	mov	w0, #0x45                  	// #69
 4025c30:	97fff912 	bl	4024078 <err_print>
 4025c34:	52800b40 	mov	w0, #0x5a                  	// #90
 4025c38:	14000005 	b	4025c4c <handle_tee_key+0x6c>
 4025c3c:	940001f0 	bl	40263fc <is_soc_tee_enable>
 4025c40:	6b14001f 	cmp	w0, w20
 4025c44:	540000a1 	b.ne	4025c58 <handle_tee_key+0x78>  // b.any
 4025c48:	528014a0 	mov	w0, #0xa5                  	// #165
 4025c4c:	f9400bfe 	ldr	x30, [sp, #16]
 4025c50:	a8c253f3 	ldp	x19, x20, [sp], #32
 4025c54:	d65f03c0 	ret
 4025c58:	d2902a80 	mov	x0, #0x8154                	// #33108
 4025c5c:	f2a203c0 	movk	x0, #0x101e, lsl #16
 4025c60:	b9400000 	ldr	w0, [x0]
 4025c64:	12001c00 	and	w0, w0, #0xff
 4025c68:	7101081f 	cmp	w0, #0x42
 4025c6c:	54fffd61 	b.ne	4025c18 <handle_tee_key+0x38>  // b.any
 4025c70:	17fffff6 	b	4025c48 <handle_tee_key+0x68>
 4025c74:	d2855000 	mov	x0, #0x2a80                	// #10880
 4025c78:	91030263 	add	x3, x19, #0xc0
 4025c7c:	aa1303e1 	mov	x1, x19
 4025c80:	52801802 	mov	w2, #0xc0                  	// #192
 4025c84:	f2a08040 	movk	x0, #0x402, lsl #16
 4025c88:	97fffd73 	bl	4025254 <secure_verify_area>
 4025c8c:	7102941f 	cmp	w0, #0xa5
 4025c90:	54000281 	b.ne	4025ce0 <handle_tee_key+0x100>  // b.any
 4025c94:	29448a61 	ldp	w1, w2, [x19, #36]
 4025c98:	d2803700 	mov	x0, #0x1b8                 	// #440
 4025c9c:	97fffcd5 	bl	4024ff0 <check_version>
 4025ca0:	7102941f 	cmp	w0, #0xa5
 4025ca4:	54000221 	b.ne	4025ce8 <handle_tee_key+0x108>  // b.any
 4025ca8:	29458660 	ldp	w0, w1, [x19, #44]
 4025cac:	97fffc73 	bl	4024e78 <check_msid_ext>
 4025cb0:	7102941f 	cmp	w0, #0xa5
 4025cb4:	54fffc01 	b.ne	4025c34 <handle_tee_key+0x54>  // b.any
 4025cb8:	b9403661 	ldr	w1, [x19, #52]
 4025cbc:	5292dc20 	mov	w0, #0x96e1                	// #38625
 4025cc0:	72a78f00 	movk	w0, #0x3c78, lsl #16
 4025cc4:	6b00003f 	cmp	w1, w0
 4025cc8:	54fffc01 	b.ne	4025c48 <handle_tee_key+0x68>  // b.any
 4025ccc:	9100e260 	add	x0, x19, #0x38
 4025cd0:	97fffc8d 	bl	4024f04 <die_id_compare>
 4025cd4:	7102941f 	cmp	w0, #0xa5
 4025cd8:	54fffae1 	b.ne	4025c34 <handle_tee_key+0x54>  // b.any
 4025cdc:	17ffffdb 	b	4025c48 <handle_tee_key+0x68>
 4025ce0:	52800ba0 	mov	w0, #0x5d                  	// #93
 4025ce4:	17ffffd3 	b	4025c30 <handle_tee_key+0x50>
 4025ce8:	52800c20 	mov	w0, #0x61                  	// #97
 4025cec:	17ffffd1 	b	4025c30 <handle_tee_key+0x50>

0000000004025cf0 <handle_tee_info>:
 4025cf0:	d100c3ff 	sub	sp, sp, #0x30
 4025cf4:	a90153f3 	stp	x19, x20, [sp, #16]
 4025cf8:	aa0103f3 	mov	x19, x1
 4025cfc:	aa0003f4 	mov	x20, x0
 4025d00:	a9027bf5 	stp	x21, x30, [sp, #32]
 4025d04:	90ffffe0 	adrp	x0, 4021000 <hash_verify_buf-0xa80>
 4025d08:	f9455001 	ldr	x1, [x0, #2720]
 4025d0c:	f90007e1 	str	x1, [sp, #8]
 4025d10:	d2800001 	mov	x1, #0x0                   	// #0
 4025d14:	5281e5a0 	mov	w0, #0xf2d                 	// #3885
 4025d18:	b9400261 	ldr	w1, [x19]
 4025d1c:	72a97c20 	movk	w0, #0x4be1, lsl #16
 4025d20:	6b00003f 	cmp	w1, w0
 4025d24:	54000221 	b.ne	4025d68 <handle_tee_info+0x78>  // b.any
 4025d28:	528d34b5 	mov	w21, #0x69a5                	// #27045
 4025d2c:	940001b4 	bl	40263fc <is_soc_tee_enable>
 4025d30:	72b86b55 	movk	w21, #0xc35a, lsl #16
 4025d34:	6b15001f 	cmp	w0, w21
 4025d38:	540001e1 	b.ne	4025d74 <handle_tee_info+0x84>  // b.any
 4025d3c:	940001b0 	bl	40263fc <is_soc_tee_enable>
 4025d40:	6b15001f 	cmp	w0, w21
 4025d44:	54000581 	b.ne	4025df4 <handle_tee_info+0x104>  // b.any
 4025d48:	528014a0 	mov	w0, #0xa5                  	// #165
 4025d4c:	90ffffe1 	adrp	x1, 4021000 <hash_verify_buf-0xa80>
 4025d50:	f94007e2 	ldr	x2, [sp, #8]
 4025d54:	f9455023 	ldr	x3, [x1, #2720]
 4025d58:	eb030042 	subs	x2, x2, x3
 4025d5c:	d2800003 	mov	x3, #0x0                   	// #0
 4025d60:	54000a20 	b.eq	4025ea4 <handle_tee_info+0x1b4>  // b.none
 4025d64:	97fff902 	bl	402416c <__stack_chk_fail>
 4025d68:	528008a0 	mov	w0, #0x45                  	// #69
 4025d6c:	97fff8c3 	bl	4024078 <err_print>
 4025d70:	1400004b 	b	4025e9c <handle_tee_info+0x1ac>
 4025d74:	d2902a80 	mov	x0, #0x8154                	// #33108
 4025d78:	f2a203c0 	movk	x0, #0x101e, lsl #16
 4025d7c:	b9400000 	ldr	w0, [x0]
 4025d80:	12001c00 	and	w0, w0, #0xff
 4025d84:	7101081f 	cmp	w0, #0x42
 4025d88:	54fffda0 	b.eq	4025d3c <handle_tee_info+0x4c>  // b.none
 4025d8c:	d2902a80 	mov	x0, #0x8154                	// #33108
 4025d90:	f2a203c0 	movk	x0, #0x101e, lsl #16
 4025d94:	b9400000 	ldr	w0, [x0]
 4025d98:	d3505c00 	ubfx	x0, x0, #16, #8
 4025d9c:	7101081f 	cmp	w0, #0x42
 4025da0:	54000381 	b.ne	4025e10 <handle_tee_info+0x120>  // b.any
 4025da4:	91060263 	add	x3, x19, #0x180
 4025da8:	aa1303e1 	mov	x1, x19
 4025dac:	91020280 	add	x0, x20, #0x80
 4025db0:	52803002 	mov	w2, #0x180                 	// #384
 4025db4:	97fffd28 	bl	4025254 <secure_verify_area>
 4025db8:	7102941f 	cmp	w0, #0xa5
 4025dbc:	540003e1 	b.ne	4025e38 <handle_tee_info+0x148>  // b.any
 4025dc0:	b9402a80 	ldr	w0, [x20, #40]
 4025dc4:	910013e1 	add	x1, sp, #0x4
 4025dc8:	b9401275 	ldr	w21, [x19, #16]
 4025dcc:	d2800002 	mov	x2, #0x0                   	// #0
 4025dd0:	2a2003f4 	mvn	w20, w0
 4025dd4:	52803700 	mov	w0, #0x1b8                 	// #440
 4025dd8:	94000763 	bl	4027b64 <uapi_drv_otp_read_word>
 4025ddc:	7102941f 	cmp	w0, #0xa5
 4025de0:	54000300 	b.eq	4025e40 <handle_tee_info+0x150>  // b.none
 4025de4:	52800bc0 	mov	w0, #0x5e                  	// #94
 4025de8:	97fff8a4 	bl	4024078 <err_print>
 4025dec:	52800c20 	mov	w0, #0x61                  	// #97
 4025df0:	17ffffdf 	b	4025d6c <handle_tee_info+0x7c>
 4025df4:	d2902a80 	mov	x0, #0x8154                	// #33108
 4025df8:	f2a203c0 	movk	x0, #0x101e, lsl #16
 4025dfc:	b9400000 	ldr	w0, [x0]
 4025e00:	12001c00 	and	w0, w0, #0xff
 4025e04:	7101081f 	cmp	w0, #0x42
 4025e08:	54fffc21 	b.ne	4025d8c <handle_tee_info+0x9c>  // b.any
 4025e0c:	17ffffcf 	b	4025d48 <handle_tee_info+0x58>
 4025e10:	d2857000 	mov	x0, #0x2b80                	// #11136
 4025e14:	91070263 	add	x3, x19, #0x1c0
 4025e18:	aa1303e1 	mov	x1, x19
 4025e1c:	52803802 	mov	w2, #0x1c0                 	// #448
 4025e20:	f2a08040 	movk	x0, #0x402, lsl #16
 4025e24:	97fffd0c 	bl	4025254 <secure_verify_area>
 4025e28:	7102941f 	cmp	w0, #0xa5
 4025e2c:	54fffbc0 	b.eq	4025da4 <handle_tee_info+0xb4>  // b.none
 4025e30:	52800b80 	mov	w0, #0x5c                  	// #92
 4025e34:	17ffffce 	b	4025d6c <handle_tee_info+0x7c>
 4025e38:	52800ba0 	mov	w0, #0x5d                  	// #93
 4025e3c:	17ffffcc 	b	4025d6c <handle_tee_info+0x7c>
 4025e40:	b94007e0 	ldr	w0, [sp, #4]
 4025e44:	910013e1 	add	x1, sp, #0x4
 4025e48:	d2800002 	mov	x2, #0x0                   	// #0
 4025e4c:	0a000280 	and	w0, w20, w0
 4025e50:	b90007e0 	str	w0, [sp, #4]
 4025e54:	97fffc62 	bl	4024fdc <count_bit_set>
 4025e58:	2a0003f4 	mov	w20, w0
 4025e5c:	52803780 	mov	w0, #0x1bc                 	// #444
 4025e60:	94000741 	bl	4027b64 <uapi_drv_otp_read_word>
 4025e64:	7102941f 	cmp	w0, #0xa5
 4025e68:	54fffbe1 	b.ne	4025de4 <handle_tee_info+0xf4>  // b.any
 4025e6c:	b94007e0 	ldr	w0, [sp, #4]
 4025e70:	97fffc5b 	bl	4024fdc <count_bit_set>
 4025e74:	0b000294 	add	w20, w20, w0
 4025e78:	710102bf 	cmp	w21, #0x40
 4025e7c:	7a5492a0 	ccmp	w21, w20, #0x0, ls  // ls = plast
 4025e80:	54000062 	b.cs	4025e8c <handle_tee_info+0x19c>  // b.hs, b.nlast
 4025e84:	52800c00 	mov	w0, #0x60                  	// #96
 4025e88:	17ffffd8 	b	4025de8 <handle_tee_info+0xf8>
 4025e8c:	29430660 	ldp	w0, w1, [x19, #24]
 4025e90:	97fffbfa 	bl	4024e78 <check_msid_ext>
 4025e94:	7102941f 	cmp	w0, #0xa5
 4025e98:	54fff580 	b.eq	4025d48 <handle_tee_info+0x58>  // b.none
 4025e9c:	52800b40 	mov	w0, #0x5a                  	// #90
 4025ea0:	17ffffab 	b	4025d4c <handle_tee_info+0x5c>
 4025ea4:	a94153f3 	ldp	x19, x20, [sp, #16]
 4025ea8:	a9427bf5 	ldp	x21, x30, [sp, #32]
 4025eac:	9100c3ff 	add	sp, sp, #0x30
 4025eb0:	d65f03c0 	ret

0000000004025eb4 <handle_atf_code>:
 4025eb4:	a9bc53f3 	stp	x19, x20, [sp, #-64]!
 4025eb8:	aa0103f4 	mov	x20, x1
 4025ebc:	a9015bf5 	stp	x21, x22, [sp, #16]
 4025ec0:	aa0203f5 	mov	x21, x2
 4025ec4:	b940b836 	ldr	w22, [x1, #184]
 4025ec8:	a90263f7 	stp	x23, x24, [sp, #32]
 4025ecc:	12bfffc1 	mov	w1, #0x1ffff               	// #131071
 4025ed0:	510006c2 	sub	w2, w22, #0x1
 4025ed4:	f9001bfe 	str	x30, [sp, #48]
 4025ed8:	6b01005f 	cmp	w2, w1
 4025edc:	54000109 	b.ls	4025efc <handle_atf_code+0x48>  // b.plast
 4025ee0:	52800b53 	mov	w19, #0x5a                  	// #90
 4025ee4:	2a1303e0 	mov	w0, w19
 4025ee8:	a9415bf5 	ldp	x21, x22, [sp, #16]
 4025eec:	a94263f7 	ldp	x23, x24, [sp, #32]
 4025ef0:	f9401bfe 	ldr	x30, [sp, #48]
 4025ef4:	a8c453f3 	ldp	x19, x20, [sp], #64
 4025ef8:	d65f03c0 	ret
 4025efc:	910c0013 	add	x19, x0, #0x300
 4025f00:	94000159 	bl	4026464 <is_tee_dec_en_enable>
 4025f04:	2a0003f7 	mov	w23, w0
 4025f08:	528d34a0 	mov	w0, #0x69a5                	// #27045
 4025f0c:	72b86b40 	movk	w0, #0xc35a, lsl #16
 4025f10:	6b0002ff 	cmp	w23, w0
 4025f14:	54000441 	b.ne	4025f9c <handle_atf_code+0xe8>  // b.any
 4025f18:	b9404a98 	ldr	w24, [x20, #72]
 4025f1c:	5292dc20 	mov	w0, #0x96e1                	// #38625
 4025f20:	72a78f00 	movk	w0, #0x3c78, lsl #16
 4025f24:	6b00031f 	cmp	w24, w0
 4025f28:	540003a1 	b.ne	4025f9c <handle_atf_code+0xe8>  // b.any
 4025f2c:	9400014e 	bl	4026464 <is_tee_dec_en_enable>
 4025f30:	6b17001f 	cmp	w0, w23
 4025f34:	54000341 	b.ne	4025f9c <handle_atf_code+0xe8>  // b.any
 4025f38:	b9404a80 	ldr	w0, [x20, #72]
 4025f3c:	6b18001f 	cmp	w0, w24
 4025f40:	540002e1 	b.ne	4025f9c <handle_atf_code+0xe8>  // b.any
 4025f44:	aa1303e2 	mov	x2, x19
 4025f48:	2a1603e1 	mov	w1, w22
 4025f4c:	d2a80020 	mov	x0, #0x40010000            	// #1073807360
 4025f50:	97fff66d 	bl	4023904 <dma_copy>
 4025f54:	2a0003f3 	mov	w19, w0
 4025f58:	7102941f 	cmp	w0, #0xa5
 4025f5c:	54000301 	b.ne	4025fbc <handle_atf_code+0x108>  // b.any
 4025f60:	528d34b6 	mov	w22, #0x69a5                	// #27045
 4025f64:	94000126 	bl	40263fc <is_soc_tee_enable>
 4025f68:	72b86b56 	movk	w22, #0xc35a, lsl #16
 4025f6c:	6b16001f 	cmp	w0, w22
 4025f70:	540002c1 	b.ne	4025fc8 <handle_atf_code+0x114>  // b.any
 4025f74:	94000122 	bl	40263fc <is_soc_tee_enable>
 4025f78:	6b16001f 	cmp	w0, w22
 4025f7c:	54fffb40 	b.eq	4025ee4 <handle_atf_code+0x30>  // b.none
 4025f80:	d2902a80 	mov	x0, #0x8154                	// #33108
 4025f84:	f2a203c0 	movk	x0, #0x101e, lsl #16
 4025f88:	b9400000 	ldr	w0, [x0]
 4025f8c:	12001c00 	and	w0, w0, #0xff
 4025f90:	7101081f 	cmp	w0, #0x42
 4025f94:	54000261 	b.ne	4025fe0 <handle_atf_code+0x12c>  // b.any
 4025f98:	17ffffd3 	b	4025ee4 <handle_atf_code+0x30>
 4025f9c:	52800020 	mov	w0, #0x1                   	// #1
 4025fa0:	2a1603e4 	mov	w4, w22
 4025fa4:	aa1303e3 	mov	x3, x19
 4025fa8:	91012281 	add	x1, x20, #0x48
 4025fac:	d2a80022 	mov	x2, #0x40010000            	// #1073807360
 4025fb0:	72a06000 	movk	w0, #0x300, lsl #16
 4025fb4:	97fff49a 	bl	402321c <decrypt_data>
 4025fb8:	17ffffe7 	b	4025f54 <handle_atf_code+0xa0>
 4025fbc:	52800a00 	mov	w0, #0x50                  	// #80
 4025fc0:	97fff82e 	bl	4024078 <err_print>
 4025fc4:	17ffffc7 	b	4025ee0 <handle_atf_code+0x2c>
 4025fc8:	d2902a80 	mov	x0, #0x8154                	// #33108
 4025fcc:	f2a203c0 	movk	x0, #0x101e, lsl #16
 4025fd0:	b9400000 	ldr	w0, [x0]
 4025fd4:	12001c00 	and	w0, w0, #0xff
 4025fd8:	7101081f 	cmp	w0, #0x42
 4025fdc:	54fffcc0 	b.eq	4025f74 <handle_atf_code+0xc0>  // b.none
 4025fe0:	b940ba81 	ldr	w1, [x20, #184]
 4025fe4:	91025296 	add	x22, x20, #0x94
 4025fe8:	aa1603e2 	mov	x2, x22
 4025fec:	aa1503e0 	mov	x0, x21
 4025ff0:	97fffc5a 	bl	4025158 <hash_compare>
 4025ff4:	7102941f 	cmp	w0, #0xa5
 4025ff8:	54fff741 	b.ne	4025ee0 <handle_atf_code+0x2c>  // b.any
 4025ffc:	b940ba81 	ldr	w1, [x20, #184]
 4026000:	aa1603e2 	mov	x2, x22
 4026004:	aa1503e0 	mov	x0, x21
 4026008:	97fffc54 	bl	4025158 <hash_compare>
 402600c:	7102941f 	cmp	w0, #0xa5
 4026010:	54fff6a0 	b.eq	4025ee4 <handle_atf_code+0x30>  // b.none
 4026014:	17ffffb3 	b	4025ee0 <handle_atf_code+0x2c>

0000000004026018 <handle_tee_code>:
 4026018:	a9bc53f3 	stp	x19, x20, [sp, #-64]!
 402601c:	aa0103f4 	mov	x20, x1
 4026020:	a9015bf5 	stp	x21, x22, [sp, #16]
 4026024:	aa0203f5 	mov	x21, x2
 4026028:	b9402436 	ldr	w22, [x1, #36]
 402602c:	a90263f7 	stp	x23, x24, [sp, #32]
 4026030:	12bfe001 	mov	w1, #0xffffff              	// #16777215
 4026034:	510006c2 	sub	w2, w22, #0x1
 4026038:	f9001bfe 	str	x30, [sp, #48]
 402603c:	6b01005f 	cmp	w2, w1
 4026040:	54000069 	b.ls	402604c <handle_tee_code+0x34>  // b.plast
 4026044:	52800b53 	mov	w19, #0x5a                  	// #90
 4026048:	14000025 	b	40260dc <handle_tee_code+0xc4>
 402604c:	910c0000 	add	x0, x0, #0x300
 4026050:	b9409293 	ldr	w19, [x20, #144]
 4026054:	8b000273 	add	x19, x19, x0
 4026058:	94000103 	bl	4026464 <is_tee_dec_en_enable>
 402605c:	2a0003f7 	mov	w23, w0
 4026060:	528d34a0 	mov	w0, #0x69a5                	// #27045
 4026064:	72b86b40 	movk	w0, #0xc35a, lsl #16
 4026068:	6b0002ff 	cmp	w23, w0
 402606c:	54000441 	b.ne	40260f4 <handle_tee_code+0xdc>  // b.any
 4026070:	b9404a98 	ldr	w24, [x20, #72]
 4026074:	5292dc20 	mov	w0, #0x96e1                	// #38625
 4026078:	72a78f00 	movk	w0, #0x3c78, lsl #16
 402607c:	6b00031f 	cmp	w24, w0
 4026080:	540003a1 	b.ne	40260f4 <handle_tee_code+0xdc>  // b.any
 4026084:	940000f8 	bl	4026464 <is_tee_dec_en_enable>
 4026088:	6b17001f 	cmp	w0, w23
 402608c:	54000341 	b.ne	40260f4 <handle_tee_code+0xdc>  // b.any
 4026090:	b9404a80 	ldr	w0, [x20, #72]
 4026094:	6b18001f 	cmp	w0, w24
 4026098:	540002e1 	b.ne	40260f4 <handle_tee_code+0xdc>  // b.any
 402609c:	d29ffc80 	mov	x0, #0xffe4                	// #65508
 40260a0:	aa1303e2 	mov	x2, x19
 40260a4:	2a1603e1 	mov	w1, w22
 40260a8:	f2a80040 	movk	x0, #0x4002, lsl #16
 40260ac:	97fff616 	bl	4023904 <dma_copy>
 40260b0:	2a0003f3 	mov	w19, w0
 40260b4:	7102941f 	cmp	w0, #0xa5
 40260b8:	54000301 	b.ne	4026118 <handle_tee_code+0x100>  // b.any
 40260bc:	528d34b6 	mov	w22, #0x69a5                	// #27045
 40260c0:	940000cf 	bl	40263fc <is_soc_tee_enable>
 40260c4:	72b86b56 	movk	w22, #0xc35a, lsl #16
 40260c8:	6b16001f 	cmp	w0, w22
 40260cc:	540002c1 	b.ne	4026124 <handle_tee_code+0x10c>  // b.any
 40260d0:	940000cb 	bl	40263fc <is_soc_tee_enable>
 40260d4:	6b16001f 	cmp	w0, w22
 40260d8:	54000481 	b.ne	4026168 <handle_tee_code+0x150>  // b.any
 40260dc:	2a1303e0 	mov	w0, w19
 40260e0:	a9415bf5 	ldp	x21, x22, [sp, #16]
 40260e4:	a94263f7 	ldp	x23, x24, [sp, #32]
 40260e8:	f9401bfe 	ldr	x30, [sp, #48]
 40260ec:	a8c453f3 	ldp	x19, x20, [sp], #64
 40260f0:	d65f03c0 	ret
 40260f4:	d29ffc82 	mov	x2, #0xffe4                	// #65508
 40260f8:	52800020 	mov	w0, #0x1                   	// #1
 40260fc:	2a1603e4 	mov	w4, w22
 4026100:	aa1303e3 	mov	x3, x19
 4026104:	91012281 	add	x1, x20, #0x48
 4026108:	f2a80042 	movk	x2, #0x4002, lsl #16
 402610c:	72a06000 	movk	w0, #0x300, lsl #16
 4026110:	97fff443 	bl	402321c <decrypt_data>
 4026114:	17ffffe7 	b	40260b0 <handle_tee_code+0x98>
 4026118:	52800a00 	mov	w0, #0x50                  	// #80
 402611c:	97fff7d7 	bl	4024078 <err_print>
 4026120:	17ffffc9 	b	4026044 <handle_tee_code+0x2c>
 4026124:	940000ad 	bl	40263d8 <is_tee_verify_enable>
 4026128:	6b16001f 	cmp	w0, w22
 402612c:	54fffd20 	b.eq	40260d0 <handle_tee_code+0xb8>  // b.none
 4026130:	b9402681 	ldr	w1, [x20, #36]
 4026134:	9100a296 	add	x22, x20, #0x28
 4026138:	aa1603e2 	mov	x2, x22
 402613c:	aa1503e0 	mov	x0, x21
 4026140:	97fffc06 	bl	4025158 <hash_compare>
 4026144:	7102941f 	cmp	w0, #0xa5
 4026148:	54fff7e1 	b.ne	4026044 <handle_tee_code+0x2c>  // b.any
 402614c:	b9402681 	ldr	w1, [x20, #36]
 4026150:	aa1603e2 	mov	x2, x22
 4026154:	aa1503e0 	mov	x0, x21
 4026158:	97fffc00 	bl	4025158 <hash_compare>
 402615c:	7102941f 	cmp	w0, #0xa5
 4026160:	54fffbe0 	b.eq	40260dc <handle_tee_code+0xc4>  // b.none
 4026164:	17ffffb8 	b	4026044 <handle_tee_code+0x2c>
 4026168:	9400009c 	bl	40263d8 <is_tee_verify_enable>
 402616c:	6b16001f 	cmp	w0, w22
 4026170:	54fffe01 	b.ne	4026130 <handle_tee_code+0x118>  // b.any
 4026174:	17ffffda 	b	40260dc <handle_tee_code+0xc4>

0000000004026178 <cal_crc_perbyte>:
 4026178:	531c2c23 	ubfiz	w3, w1, #4, #12
 402617c:	53041c04 	ubfx	w4, w0, #4, #4
 4026180:	530c3c21 	ubfx	w1, w1, #12, #4
 4026184:	90000042 	adrp	x2, 402e000 <ddrtrn_hal_set_dq_type+0xc>
 4026188:	4a040021 	eor	w1, w1, w4
 402618c:	91394042 	add	x2, x2, #0xe50
 4026190:	12000c00 	and	w0, w0, #0xf
 4026194:	7861d841 	ldrh	w1, [x2, w1, sxtw #1]
 4026198:	4a030021 	eor	w1, w1, w3
 402619c:	531c2c23 	ubfiz	w3, w1, #4, #12
 40261a0:	4a413001 	eor	w1, w0, w1, lsr #12
 40261a4:	7861d840 	ldrh	w0, [x2, w1, sxtw #1]
 40261a8:	4a030000 	eor	w0, w0, w3
 40261ac:	d65f03c0 	ret

00000000040261b0 <malloc_init>:
 40261b0:	a9be53f3 	stp	x19, x20, [sp, #-32]!
 40261b4:	f0ffffc1 	adrp	x1, 4021000 <hash_verify_buf-0xa80>
 40261b8:	912b0033 	add	x19, x1, #0xac0
 40261bc:	2a0003f4 	mov	w20, w0
 40261c0:	d2802403 	mov	x3, #0x120                 	// #288
 40261c4:	aa1303e0 	mov	x0, x19
 40261c8:	aa0303e1 	mov	x1, x3
 40261cc:	52800002 	mov	w2, #0x0                   	// #0
 40261d0:	f9000bfe 	str	x30, [sp, #16]
 40261d4:	94000700 	bl	4027dd4 <memset_s>
 40261d8:	35000620 	cbnz	w0, 402629c <malloc_init+0xec>
 40261dc:	90000042 	adrp	x2, 402e000 <ddrtrn_hal_set_dq_type+0xc>
 40261e0:	aa1303e1 	mov	x1, x19
 40261e4:	9139c042 	add	x2, x2, #0xe70
 40261e8:	79400440 	ldrh	w0, [x2, #2]
 40261ec:	35000120 	cbnz	w0, 4026210 <malloc_init+0x60>
 40261f0:	d2a04000 	mov	x0, #0x2000000             	// #33554432
 40261f4:	f9000020 	str	x0, [x1]
 40261f8:	aa1303e1 	mov	x1, x19
 40261fc:	b9400820 	ldr	w0, [x1, #8]
 4026200:	350001a0 	cbnz	w0, 4026234 <malloc_init+0x84>
 4026204:	f9400bfe 	ldr	x30, [sp, #16]
 4026208:	a8c253f3 	ldp	x19, x20, [sp], #32
 402620c:	d65f03c0 	ret
 4026210:	78404443 	ldrh	w3, [x2], #4
 4026214:	91008021 	add	x1, x1, #0x20
 4026218:	b81e8020 	stur	w0, [x1, #-24]
 402621c:	92403c64 	and	x4, x3, #0xffff
 4026220:	f81e0024 	stur	x4, [x1, #-32]
 4026224:	f81f0034 	stur	x20, [x1, #-16]
 4026228:	d503201f 	nop
 402622c:	9ba05074 	umaddl	x20, w3, w0, x20
 4026230:	17ffffee 	b	40261e8 <malloc_init+0x38>
 4026234:	91008022 	add	x2, x1, #0x20
 4026238:	aa0203e3 	mov	x3, x2
 402623c:	b9400864 	ldr	w4, [x3, #8]
 4026240:	35000224 	cbnz	w4, 4026284 <malloc_init+0xd4>
 4026244:	d1008043 	sub	x3, x2, #0x20
 4026248:	eb03003f 	cmp	x1, x3
 402624c:	54000180 	b.eq	402627c <malloc_init+0xcc>  // b.none
 4026250:	f9400825 	ldr	x5, [x1, #16]
 4026254:	f85f0044 	ldur	x4, [x2, #-16]
 4026258:	f81f0045 	stur	x5, [x2, #-16]
 402625c:	b9400825 	ldr	w5, [x1, #8]
 4026260:	b81e8045 	stur	w5, [x2, #-24]
 4026264:	f9400025 	ldr	x5, [x1]
 4026268:	f85e0043 	ldur	x3, [x2, #-32]
 402626c:	f81e0045 	stur	x5, [x2, #-32]
 4026270:	f9000023 	str	x3, [x1]
 4026274:	b9000820 	str	w0, [x1, #8]
 4026278:	f9000824 	str	x4, [x1, #16]
 402627c:	aa0203e1 	mov	x1, x2
 4026280:	17ffffdf 	b	40261fc <malloc_init+0x4c>
 4026284:	f9400024 	ldr	x4, [x1]
 4026288:	f9400065 	ldr	x5, [x3]
 402628c:	eb0400bf 	cmp	x5, x4
 4026290:	9a832021 	csel	x1, x1, x3, cs  // cs = hs, nlast
 4026294:	91008063 	add	x3, x3, #0x20
 4026298:	17ffffe9 	b	402623c <malloc_init+0x8c>
 402629c:	12800000 	mov	w0, #0xffffffff            	// #-1
 40262a0:	17ffffd9 	b	4026204 <malloc_init+0x54>

00000000040262a4 <malloc>:
 40262a4:	f0ffffc1 	adrp	x1, 4021000 <hash_verify_buf-0xa80>
 40262a8:	912b0021 	add	x1, x1, #0xac0
 40262ac:	f9400022 	ldr	x2, [x1]
 40262b0:	eb00005f 	cmp	x2, x0
 40262b4:	54000163 	b.cc	40262e0 <malloc+0x3c>  // b.lo, b.ul, b.last
 40262b8:	f9400c25 	ldr	x5, [x1, #24]
 40262bc:	52800003 	mov	w3, #0x0                   	// #0
 40262c0:	b9400824 	ldr	w4, [x1, #8]
 40262c4:	aa0503e0 	mov	x0, x5
 40262c8:	6b03009f 	cmp	w4, w3
 40262cc:	540000e1 	b.ne	40262e8 <malloc+0x44>  // b.any
 40262d0:	91008021 	add	x1, x1, #0x20
 40262d4:	35ffff24 	cbnz	w4, 40262b8 <malloc+0x14>
 40262d8:	d2800000 	mov	x0, #0x0                   	// #0
 40262dc:	1400000d 	b	4026310 <malloc+0x6c>
 40262e0:	91008021 	add	x1, x1, #0x20
 40262e4:	17fffff2 	b	40262ac <malloc+0x8>
 40262e8:	37000160 	tbnz	w0, #0, 4026314 <malloc+0x70>
 40262ec:	f9400024 	ldr	x4, [x1]
 40262f0:	2a0303e0 	mov	w0, w3
 40262f4:	f9400822 	ldr	x2, [x1, #16]
 40262f8:	9b040800 	madd	x0, x0, x4, x2
 40262fc:	52800022 	mov	w2, #0x1                   	// #1
 4026300:	1ac32042 	lsl	w2, w2, w3
 4026304:	93407c42 	sxtw	x2, w2
 4026308:	aa050042 	orr	x2, x2, x5
 402630c:	f9000c22 	str	x2, [x1, #24]
 4026310:	d65f03c0 	ret
 4026314:	d341fc00 	lsr	x0, x0, #1
 4026318:	11000463 	add	w3, w3, #0x1
 402631c:	17ffffeb 	b	40262c8 <malloc+0x24>

0000000004026320 <free>:
 4026320:	f0ffffc1 	adrp	x1, 4021000 <hash_verify_buf-0xa80>
 4026324:	912b0021 	add	x1, x1, #0xac0
 4026328:	b9800822 	ldrsw	x2, [x1, #8]
 402632c:	f9400024 	ldr	x4, [x1]
 4026330:	f9400823 	ldr	x3, [x1, #16]
 4026334:	9b047c42 	mul	x2, x2, x4
 4026338:	cb030003 	sub	x3, x0, x3
 402633c:	eb02007f 	cmp	x3, x2
 4026340:	540001c2 	b.cs	4026378 <free+0x58>  // b.hs, b.nlast
 4026344:	52800002 	mov	w2, #0x0                   	// #0
 4026348:	2a0203e0 	mov	w0, w2
 402634c:	9b047c00 	mul	x0, x0, x4
 4026350:	eb00007f 	cmp	x3, x0
 4026354:	54000168 	b.hi	4026380 <free+0x60>  // b.pmore
 4026358:	52800020 	mov	w0, #0x1                   	// #1
 402635c:	1ac22000 	lsl	w0, w0, w2
 4026360:	2a2003e0 	mvn	w0, w0
 4026364:	f9400c22 	ldr	x2, [x1, #24]
 4026368:	93407c00 	sxtw	x0, w0
 402636c:	8a000040 	and	x0, x2, x0
 4026370:	f9000c20 	str	x0, [x1, #24]
 4026374:	d65f03c0 	ret
 4026378:	91008021 	add	x1, x1, #0x20
 402637c:	17ffffeb 	b	4026328 <free+0x8>
 4026380:	11000442 	add	w2, w2, #0x1
 4026384:	17fffff1 	b	4026348 <free+0x28>

0000000004026388 <timer_get_divider>:
 4026388:	d2817700 	mov	x0, #0xbb8                 	// #3000
 402638c:	d65f03c0 	ret

0000000004026390 <is_ree_verify_enable>:
 4026390:	d2800280 	mov	x0, #0x14                  	// #20
 4026394:	f2a203c0 	movk	x0, #0x101e, lsl #16
 4026398:	b9400001 	ldr	w1, [x0]
 402639c:	528d34a0 	mov	w0, #0x69a5                	// #27045
 40263a0:	72b86b40 	movk	w0, #0xc35a, lsl #16
 40263a4:	d3505c21 	ubfx	x1, x1, #16, #8
 40263a8:	7101083f 	cmp	w1, #0x42
 40263ac:	5a800000 	cinv	w0, w0, ne  // ne = any
 40263b0:	d65f03c0 	ret

00000000040263b4 <is_tp_verify_enable>:
 40263b4:	d2800280 	mov	x0, #0x14                  	// #20
 40263b8:	f2a203c0 	movk	x0, #0x101e, lsl #16
 40263bc:	b9400001 	ldr	w1, [x0]
 40263c0:	528d34a0 	mov	w0, #0x69a5                	// #27045
 40263c4:	72b86b40 	movk	w0, #0xc35a, lsl #16
 40263c8:	d3483c21 	ubfx	x1, x1, #8, #8
 40263cc:	7101083f 	cmp	w1, #0x42
 40263d0:	5a800000 	cinv	w0, w0, ne  // ne = any
 40263d4:	d65f03c0 	ret

00000000040263d8 <is_tee_verify_enable>:
 40263d8:	d2800280 	mov	x0, #0x14                  	// #20
 40263dc:	f2a203c0 	movk	x0, #0x101e, lsl #16
 40263e0:	b9400001 	ldr	w1, [x0]
 40263e4:	528d34a0 	mov	w0, #0x69a5                	// #27045
 40263e8:	72b86b40 	movk	w0, #0xc35a, lsl #16
 40263ec:	53187c21 	lsr	w1, w1, #24
 40263f0:	7101083f 	cmp	w1, #0x42
 40263f4:	5a800000 	cinv	w0, w0, ne  // ne = any
 40263f8:	d65f03c0 	ret

00000000040263fc <is_soc_tee_enable>:
 40263fc:	d2800200 	mov	x0, #0x10                  	// #16
 4026400:	f2a203c0 	movk	x0, #0x101e, lsl #16
 4026404:	b9400001 	ldr	w1, [x0]
 4026408:	528d34a0 	mov	w0, #0x69a5                	// #27045
 402640c:	72b86b40 	movk	w0, #0xc35a, lsl #16
 4026410:	d3505c21 	ubfx	x1, x1, #16, #8
 4026414:	7101083f 	cmp	w1, #0x42
 4026418:	5a800000 	cinv	w0, w0, ne  // ne = any
 402641c:	d65f03c0 	ret

0000000004026420 <is_sec_dbg_enable>:
 4026420:	d2803c00 	mov	x0, #0x1e0                 	// #480
 4026424:	f2a203c0 	movk	x0, #0x101e, lsl #16
 4026428:	b9400001 	ldr	w1, [x0]
 402642c:	5292cb40 	mov	w0, #0x965a                	// #38490
 4026430:	72a794a0 	movk	w0, #0x3ca5, lsl #16
 4026434:	d3505c21 	ubfx	x1, x1, #16, #8
 4026438:	7101083f 	cmp	w1, #0x42
 402643c:	5a800000 	cinv	w0, w0, ne  // ne = any
 4026440:	d65f03c0 	ret

0000000004026444 <is_sec_dbg_lv_enable>:
 4026444:	d2803c00 	mov	x0, #0x1e0                 	// #480
 4026448:	f2a203c0 	movk	x0, #0x101e, lsl #16
 402644c:	b9400001 	ldr	w1, [x0]
 4026450:	5292cb40 	mov	w0, #0x965a                	// #38490
 4026454:	72a794a0 	movk	w0, #0x3ca5, lsl #16
 4026458:	7218043f 	tst	w1, #0x300
 402645c:	5a800000 	cinv	w0, w0, ne  // ne = any
 4026460:	d65f03c0 	ret

0000000004026464 <is_tee_dec_en_enable>:
 4026464:	d2800080 	mov	x0, #0x4                   	// #4
 4026468:	f2a203c0 	movk	x0, #0x101e, lsl #16
 402646c:	b9400001 	ldr	w1, [x0]
 4026470:	5292cb40 	mov	w0, #0x965a                	// #38490
 4026474:	72a794a0 	movk	w0, #0x3ca5, lsl #16
 4026478:	72100c3f 	tst	w1, #0xf0000
 402647c:	5a801000 	cinv	w0, w0, eq  // eq = none
 4026480:	d65f03c0 	ret

0000000004026484 <is_ree_boot_dec_en_enable>:
 4026484:	d2800080 	mov	x0, #0x4                   	// #4
 4026488:	f2a203c0 	movk	x0, #0x101e, lsl #16
 402648c:	b9400001 	ldr	w1, [x0]
 4026490:	5292cb40 	mov	w0, #0x965a                	// #38490
 4026494:	72a794a0 	movk	w0, #0x3ca5, lsl #16
 4026498:	720c0c3f 	tst	w1, #0xf00000
 402649c:	5a801000 	cinv	w0, w0, eq  // eq = none
 40264a0:	d65f03c0 	ret

00000000040264a4 <opt_get_boot_backup_enable>:
 40264a4:	d2a203c0 	mov	x0, #0x101e0000            	// #270401536
 40264a8:	b9400000 	ldr	w0, [x0]
 40264ac:	d3471c00 	ubfx	x0, x0, #7, #1
 40264b0:	d65f03c0 	ret

00000000040264b4 <check_volt_val>:
 40264b4:	b9400003 	ldr	w3, [x0]
 40264b8:	6b01007f 	cmp	w3, w1
 40264bc:	54000069 	b.ls	40264c8 <check_volt_val+0x14>  // b.plast
 40264c0:	b9000001 	str	w1, [x0]
 40264c4:	d65f03c0 	ret
 40264c8:	6b02007f 	cmp	w3, w2
 40264cc:	54ffffc2 	b.cs	40264c4 <check_volt_val+0x10>  // b.hs, b.nlast
 40264d0:	b9000002 	str	w2, [x0]
 40264d4:	17fffffc 	b	40264c4 <check_volt_val+0x10>

00000000040264d8 <svb_pwm_cfg>:
 40264d8:	2a0103e1 	mov	w1, w1
 40264dc:	53102400 	ubfiz	w0, w0, #16, #10
 40264e0:	52833ea2 	mov	w2, #0x19f5                	// #6645
 40264e4:	2a020000 	orr	w0, w0, w2
 40264e8:	b9000020 	str	w0, [x1]
 40264ec:	d65f03c0 	ret

00000000040264f0 <svb_error>:
 40264f0:	f81f0ffe 	str	x30, [sp, #-16]!
 40264f4:	b0000040 	adrp	x0, 402f000 <malloc_sizes_ro+0x190>
 40264f8:	9103c400 	add	x0, x0, #0xf1
 40264fc:	940005fa 	bl	4027ce4 <log_serial_puts>
 4026500:	d2800040 	mov	x0, #0x2                   	// #2
 4026504:	94000614 	bl	4027d54 <mdelay>
 4026508:	94000603 	bl	4027d14 <timer_deinit>
 402650c:	d2800080 	mov	x0, #0x4                   	// #4
 4026510:	52800021 	mov	w1, #0x1                   	// #1
 4026514:	f2a22040 	movk	x0, #0x1102, lsl #16
 4026518:	f84107fe 	ldr	x30, [sp], #16
 402651c:	b9000001 	str	w1, [x0]
 4026520:	b9000001 	str	w1, [x0]
 4026524:	b9000001 	str	w1, [x0]
 4026528:	d65f03c0 	ret

000000000402652c <hpm_value_avg.constprop.0>:
 402652c:	d10043ff 	sub	sp, sp, #0x10
 4026530:	d2800001 	mov	x1, #0x0                   	// #0
 4026534:	b9000fff 	str	wzr, [sp, #12]
 4026538:	b8617803 	ldr	w3, [x0, x1, lsl #2]
 402653c:	91000421 	add	x1, x1, #0x1
 4026540:	b9400fe2 	ldr	w2, [sp, #12]
 4026544:	0b030042 	add	w2, w2, w3
 4026548:	b9000fe2 	str	w2, [sp, #12]
 402654c:	f100103f 	cmp	x1, #0x4
 4026550:	54ffff41 	b.ne	4026538 <hpm_value_avg.constprop.0+0xc>  // b.any
 4026554:	b9400fe0 	ldr	w0, [sp, #12]
 4026558:	910043ff 	add	sp, sp, #0x10
 402655c:	53057c00 	lsr	w0, w0, #5
 4026560:	d65f03c0 	ret

0000000004026564 <calc_volt_regval.constprop.0>:
 4026564:	d10043ff 	sub	sp, sp, #0x10
 4026568:	6b01001f 	cmp	w0, w1
 402656c:	540001c3 	b.cc	40265a4 <calc_volt_regval.constprop.0+0x40>  // b.lo, b.ul, b.last
 4026570:	51000420 	sub	w0, w1, #0x1
 4026574:	510a2022 	sub	w2, w1, #0x288
 4026578:	4b000020 	sub	w0, w1, w0
 402657c:	52803403 	mov	w3, #0x1a0                 	// #416
 4026580:	510a2421 	sub	w1, w1, #0x289
 4026584:	53017c42 	lsr	w2, w2, #1
 4026588:	1b030800 	madd	w0, w0, w3, w2
 402658c:	1ac10800 	udiv	w0, w0, w1
 4026590:	51000400 	sub	w0, w0, #0x1
 4026594:	b9000fe0 	str	w0, [sp, #12]
 4026598:	b9400fe0 	ldr	w0, [sp, #12]
 402659c:	910043ff 	add	sp, sp, #0x10
 40265a0:	d65f03c0 	ret
 40265a4:	710a281f 	cmp	w0, #0x28a
 40265a8:	52805142 	mov	w2, #0x28a                 	// #650
 40265ac:	1a822000 	csel	w0, w0, w2, cs  // cs = hs, nlast
 40265b0:	17fffff1 	b	4026574 <calc_volt_regval.constprop.0+0x10>

00000000040265b4 <set_volt>:
 40265b4:	d100c3ff 	sub	sp, sp, #0x30
 40265b8:	2a0103e7 	mov	w7, w1
 40265bc:	f0ffffc1 	adrp	x1, 4021000 <hash_verify_buf-0xa80>
 40265c0:	2a0203e6 	mov	w6, w2
 40265c4:	aa0303e4 	mov	x4, x3
 40265c8:	52800023 	mov	w3, #0x1                   	// #1
 40265cc:	f90013fe 	str	x30, [sp, #32]
 40265d0:	5290d408 	mov	w8, #0x86a0                	// #34464
 40265d4:	72a00028 	movk	w8, #0x1, lsl #16
 40265d8:	f9455022 	ldr	x2, [x1, #2720]
 40265dc:	f9000fe2 	str	x2, [sp, #24]
 40265e0:	d2800002 	mov	x2, #0x0                   	// #0
 40265e4:	d2802181 	mov	x1, #0x10c                 	// #268
 40265e8:	f2a203c1 	movk	x1, #0x101e, lsl #16
 40265ec:	b9400021 	ldr	w1, [x1]
 40265f0:	b9000be1 	str	w1, [sp, #8]
 40265f4:	b9400be1 	ldr	w1, [sp, #8]
 40265f8:	b9400be2 	ldr	w2, [sp, #8]
 40265fc:	93401821 	sbfx	x1, x1, #0, #7
 4026600:	f279005f 	tst	x2, #0x80
 4026604:	5a83046a 	cneg	w10, w3, ne  // ne = any
 4026608:	1b017d4a 	mul	w10, w10, w1
 402660c:	d2802481 	mov	x1, #0x124                 	// #292
 4026610:	f2a203c1 	movk	x1, #0x101e, lsl #16
 4026614:	b9400021 	ldr	w1, [x1]
 4026618:	b90013e1 	str	w1, [sp, #16]
 402661c:	b94013e1 	ldr	w1, [sp, #16]
 4026620:	b94013e2 	ldr	w2, [sp, #16]
 4026624:	b94013e5 	ldr	w5, [sp, #16]
 4026628:	93505821 	sbfx	x1, x1, #16, #7
 402662c:	f269005f 	tst	x2, #0x800000
 4026630:	b9400082 	ldr	w2, [x4]
 4026634:	5a830469 	cneg	w9, w3, ne  // ne = any
 4026638:	935878a5 	sbfx	x5, x5, #24, #7
 402663c:	1b017d29 	mul	w9, w9, w1
 4026640:	b94013e1 	ldr	w1, [sp, #16]
 4026644:	7100003f 	cmp	w1, #0x0
 4026648:	b9400481 	ldr	w1, [x4, #4]
 402664c:	5a83a463 	cneg	w3, w3, lt  // lt = tstop
 4026650:	7104341f 	cmp	w0, #0x10d
 4026654:	1b028402 	msub	w2, w0, w2, w1
 4026658:	b9400c81 	ldr	w1, [x4, #12]
 402665c:	1b057c65 	mul	w5, w3, w5
 4026660:	1ac80842 	udiv	w2, w2, w8
 4026664:	1a818040 	csel	w0, w2, w1, hi  // hi = pmore
 4026668:	b9400882 	ldr	w2, [x4, #8]
 402666c:	b90017e0 	str	w0, [sp, #20]
 4026670:	910053e0 	add	x0, sp, #0x14
 4026674:	97ffff90 	bl	40264b4 <check_volt_val>
 4026678:	b94017e1 	ldr	w1, [sp, #20]
 402667c:	52806722 	mov	w2, #0x339                 	// #825
 4026680:	0b0a0021 	add	w1, w1, w10
 4026684:	b90017e1 	str	w1, [sp, #20]
 4026688:	52807e41 	mov	w1, #0x3f2                 	// #1010
 402668c:	97ffff8a 	bl	40264b4 <check_volt_val>
 4026690:	79402be1 	ldrh	w1, [sp, #20]
 4026694:	52800000 	mov	w0, #0x0                   	// #0
 4026698:	33003c20 	bfxil	w0, w1, #0, #16
 402669c:	33103c20 	bfi	w0, w1, #16, #16
 40266a0:	d2806881 	mov	x1, #0x344                 	// #836
 40266a4:	f2a22041 	movk	x1, #0x1102, lsl #16
 40266a8:	b9000020 	str	w0, [x1]
 40266ac:	528069a1 	mov	w1, #0x34d                 	// #845
 40266b0:	b94017e0 	ldr	w0, [sp, #20]
 40266b4:	5100a000 	sub	w0, w0, #0x28
 40266b8:	710d301f 	cmp	w0, #0x34c
 40266bc:	1a818000 	csel	w0, w0, w1, hi  // hi = pmore
 40266c0:	52808361 	mov	w1, #0x41b                 	// #1051
 40266c4:	b90017e0 	str	w0, [sp, #20]
 40266c8:	97ffffa7 	bl	4026564 <calc_volt_regval.constprop.0>
 40266cc:	52920001 	mov	w1, #0x9000                	// #36864
 40266d0:	72a22041 	movk	w1, #0x1102, lsl #16
 40266d4:	97ffff81 	bl	40264d8 <svb_pwm_cfg>
 40266d8:	29428881 	ldp	w1, w2, [x4, #20]
 40266dc:	910053e0 	add	x0, sp, #0x14
 40266e0:	1b0188e7 	msub	w7, w7, w1, w2
 40266e4:	29438482 	ldp	w2, w1, [x4, #28]
 40266e8:	1ac808e7 	udiv	w7, w7, w8
 40266ec:	b90017e7 	str	w7, [sp, #20]
 40266f0:	97ffff71 	bl	40264b4 <check_volt_val>
 40266f4:	b94017e1 	ldr	w1, [sp, #20]
 40266f8:	52806542 	mov	w2, #0x32a                 	// #810
 40266fc:	0b090021 	add	w1, w1, w9
 4026700:	b90017e1 	str	w1, [sp, #20]
 4026704:	52808321 	mov	w1, #0x419                 	// #1049
 4026708:	97ffff6b 	bl	40264b4 <check_volt_val>
 402670c:	79402be2 	ldrh	w2, [sp, #20]
 4026710:	52800000 	mov	w0, #0x0                   	// #0
 4026714:	33003c40 	bfxil	w0, w2, #0, #16
 4026718:	33103c40 	bfi	w0, w2, #16, #16
 402671c:	d2806902 	mov	x2, #0x348                 	// #840
 4026720:	f2a22042 	movk	x2, #0x1102, lsl #16
 4026724:	b9000040 	str	w0, [x2]
 4026728:	b94017e0 	ldr	w0, [sp, #20]
 402672c:	97ffff8e 	bl	4026564 <calc_volt_regval.constprop.0>
 4026730:	52920081 	mov	w1, #0x9004                	// #36868
 4026734:	72a22041 	movk	w1, #0x1102, lsl #16
 4026738:	97ffff68 	bl	40264d8 <svb_pwm_cfg>
 402673c:	b9403881 	ldr	w1, [x4, #56]
 4026740:	35000461 	cbnz	w1, 40267cc <set_volt+0x218>
 4026744:	29450482 	ldp	w2, w1, [x4, #40]
 4026748:	910053e0 	add	x0, sp, #0x14
 402674c:	1b0284c6 	msub	w6, w6, w2, w1
 4026750:	29460482 	ldp	w2, w1, [x4, #48]
 4026754:	1ac808c6 	udiv	w6, w6, w8
 4026758:	b90017e6 	str	w6, [sp, #20]
 402675c:	97ffff56 	bl	40264b4 <check_volt_val>
 4026760:	b94017e3 	ldr	w3, [sp, #20]
 4026764:	52808321 	mov	w1, #0x419                 	// #1049
 4026768:	52806542 	mov	w2, #0x32a                 	// #810
 402676c:	910053e0 	add	x0, sp, #0x14
 4026770:	0b050065 	add	w5, w3, w5
 4026774:	b90017e5 	str	w5, [sp, #20]
 4026778:	97ffff4f 	bl	40264b4 <check_volt_val>
 402677c:	79402be1 	ldrh	w1, [sp, #20]
 4026780:	52800000 	mov	w0, #0x0                   	// #0
 4026784:	33003c20 	bfxil	w0, w1, #0, #16
 4026788:	33103c20 	bfi	w0, w1, #16, #16
 402678c:	d2806981 	mov	x1, #0x34c                 	// #844
 4026790:	f2a22041 	movk	x1, #0x1102, lsl #16
 4026794:	b9000020 	str	w0, [x1]
 4026798:	52808361 	mov	w1, #0x41b                 	// #1051
 402679c:	b94017e0 	ldr	w0, [sp, #20]
 40267a0:	97ffff71 	bl	4026564 <calc_volt_regval.constprop.0>
 40267a4:	52920101 	mov	w1, #0x9008                	// #36872
 40267a8:	72a22041 	movk	w1, #0x1102, lsl #16
 40267ac:	97ffff4b 	bl	40264d8 <svb_pwm_cfg>
 40267b0:	f0ffffc0 	adrp	x0, 4021000 <hash_verify_buf-0xa80>
 40267b4:	f9400fe1 	ldr	x1, [sp, #24]
 40267b8:	f9455002 	ldr	x2, [x0, #2720]
 40267bc:	eb020021 	subs	x1, x1, x2
 40267c0:	d2800002 	mov	x2, #0x0                   	// #0
 40267c4:	54000080 	b.eq	40267d4 <set_volt+0x220>  // b.none
 40267c8:	97fff669 	bl	402416c <__stack_chk_fail>
 40267cc:	b90017e1 	str	w1, [sp, #20]
 40267d0:	17ffffe4 	b	4026760 <set_volt+0x1ac>
 40267d4:	f94013fe 	ldr	x30, [sp, #32]
 40267d8:	d2800280 	mov	x0, #0x14                  	// #20
 40267dc:	9100c3ff 	add	sp, sp, #0x30
 40267e0:	14000559 	b	4027d44 <udelay>

00000000040267e4 <start_svb>:
 40267e4:	d10283ff 	sub	sp, sp, #0xa0
 40267e8:	f0ffffc0 	adrp	x0, 4021000 <hash_verify_buf-0xa80>
 40267ec:	52800062 	mov	w2, #0x3                   	// #3
 40267f0:	d2963203 	mov	x3, #0xb190                	// #45456
 40267f4:	72ac0102 	movk	w2, #0x6008, lsl #16
 40267f8:	f2a22043 	movk	x3, #0x1102, lsl #16
 40267fc:	a90553f3 	stp	x19, x20, [sp, #80]
 4026800:	a9065bf5 	stp	x21, x22, [sp, #96]
 4026804:	a90763f7 	stp	x23, x24, [sp, #112]
 4026808:	a9086bf9 	stp	x25, x26, [sp, #128]
 402680c:	f9004bfe 	str	x30, [sp, #144]
 4026810:	f9455001 	ldr	x1, [x0, #2720]
 4026814:	f90027e1 	str	x1, [sp, #72]
 4026818:	d2800001 	mov	x1, #0x0                   	// #0
 402681c:	d2802d01 	mov	x1, #0x168                 	// #360
 4026820:	f2a22041 	movk	x1, #0x1102, lsl #16
 4026824:	b9400020 	ldr	w0, [x1]
 4026828:	72a02000 	movk	w0, #0x100, lsl #16
 402682c:	b9000020 	str	w0, [x1]
 4026830:	d2940000 	mov	x0, #0xa000                	// #40960
 4026834:	529f8001 	mov	w1, #0xfc00                	// #64512
 4026838:	f2a22040 	movk	x0, #0x1102, lsl #16
 402683c:	72b811e1 	movk	w1, #0xc08f, lsl #16
 4026840:	b9000001 	str	w1, [x0]
 4026844:	d2892f81 	mov	x1, #0x497c                	// #18812
 4026848:	f2a22021 	movk	x1, #0x1101, lsl #16
 402684c:	b900041f 	str	wzr, [x0, #4]
 4026850:	52800200 	mov	w0, #0x10                  	// #16
 4026854:	b9000020 	str	w0, [x1]
 4026858:	b9000420 	str	w0, [x1, #4]
 402685c:	b9000820 	str	w0, [x1, #8]
 4026860:	d2962000 	mov	x0, #0xb100                	// #45312
 4026864:	f2a22040 	movk	x0, #0x1102, lsl #16
 4026868:	52807fe1 	mov	w1, #0x3ff                 	// #1023
 402686c:	b9000002 	str	w2, [x0]
 4026870:	b9000401 	str	w1, [x0, #4]
 4026874:	b8100002 	stur	w2, [x0, #-256]
 4026878:	b8104001 	stur	w1, [x0, #-252]
 402687c:	91004000 	add	x0, x0, #0x10
 4026880:	b902f002 	str	w2, [x0, #752]
 4026884:	b902f401 	str	w1, [x0, #756]
 4026888:	eb03001f 	cmp	x0, x3
 402688c:	54ffff01 	b.ne	402686c <start_svb+0x88>  // b.any
 4026890:	52808361 	mov	w1, #0x41b                 	// #1051
 4026894:	52807bc0 	mov	w0, #0x3de                 	// #990
 4026898:	97ffff33 	bl	4026564 <calc_volt_regval.constprop.0>
 402689c:	52802239 	mov	w25, #0x111                 	// #273
 40268a0:	52920001 	mov	w1, #0x9000                	// #36864
 40268a4:	d288e093 	mov	x19, #0x4704                	// #18180
 40268a8:	72a22041 	movk	w1, #0x1102, lsl #16
 40268ac:	97ffff0b 	bl	40264d8 <svb_pwm_cfg>
 40268b0:	52808321 	mov	w1, #0x419                 	// #1049
 40268b4:	52807bc0 	mov	w0, #0x3de                 	// #990
 40268b8:	97ffff2b 	bl	4026564 <calc_volt_regval.constprop.0>
 40268bc:	f2a22053 	movk	x19, #0x1102, lsl #16
 40268c0:	52920081 	mov	w1, #0x9004                	// #36868
 40268c4:	52802218 	mov	w24, #0x110                 	// #272
 40268c8:	72a22041 	movk	w1, #0x1102, lsl #16
 40268cc:	97ffff03 	bl	40264d8 <svb_pwm_cfg>
 40268d0:	52808361 	mov	w1, #0x41b                 	// #1051
 40268d4:	52807bc0 	mov	w0, #0x3de                 	// #990
 40268d8:	97ffff23 	bl	4026564 <calc_volt_regval.constprop.0>
 40268dc:	52802357 	mov	w23, #0x11a                 	// #282
 40268e0:	52920101 	mov	w1, #0x9008                	// #36872
 40268e4:	52806636 	mov	w22, #0x331                 	// #817
 40268e8:	72a22041 	movk	w1, #0x1102, lsl #16
 40268ec:	97fffefb 	bl	40264d8 <svb_pwm_cfg>
 40268f0:	d2893200 	mov	x0, #0x4990                	// #18832
 40268f4:	52802755 	mov	w21, #0x13a                 	// #314
 40268f8:	f2a22020 	movk	x0, #0x1101, lsl #16
 40268fc:	72a00035 	movk	w21, #0x1, lsl #16
 4026900:	52802754 	mov	w20, #0x13a                 	// #314
 4026904:	b9000019 	str	w25, [x0]
 4026908:	72a02034 	movk	w20, #0x101, lsl #16
 402690c:	b9000018 	str	w24, [x0]
 4026910:	d288e100 	mov	x0, #0x4708                	// #18184
 4026914:	f2a22040 	movk	x0, #0x1102, lsl #16
 4026918:	b9000277 	str	w23, [x19]
 402691c:	b9000016 	str	w22, [x0]
 4026920:	d2800140 	mov	x0, #0xa                   	// #10
 4026924:	b9000275 	str	w21, [x19]
 4026928:	94000507 	bl	4027d44 <udelay>
 402692c:	b9000274 	str	w20, [x19]
 4026930:	d2800140 	mov	x0, #0xa                   	// #10
 4026934:	94000504 	bl	4027d44 <udelay>
 4026938:	d2893280 	mov	x0, #0x4994                	// #18836
 402693c:	f2a22020 	movk	x0, #0x1101, lsl #16
 4026940:	b9000019 	str	w25, [x0]
 4026944:	b9000018 	str	w24, [x0]
 4026948:	d288e300 	mov	x0, #0x4718                	// #18200
 402694c:	f2a22040 	movk	x0, #0x1102, lsl #16
 4026950:	b9001277 	str	w23, [x19, #16]
 4026954:	b9000016 	str	w22, [x0]
 4026958:	d2800140 	mov	x0, #0xa                   	// #10
 402695c:	b9001275 	str	w21, [x19, #16]
 4026960:	940004f9 	bl	4027d44 <udelay>
 4026964:	b9001274 	str	w20, [x19, #16]
 4026968:	d2800140 	mov	x0, #0xa                   	// #10
 402696c:	940004fa 	bl	4027d54 <mdelay>
 4026970:	29037fff 	stp	wzr, wzr, [sp, #24]
 4026974:	d2962508 	mov	x8, #0xb128                	// #45352
 4026978:	d2962587 	mov	x7, #0xb12c                	// #45356
 402697c:	d2960906 	mov	x6, #0xb048                	// #45128
 4026980:	d2960985 	mov	x5, #0xb04c                	// #45132
 4026984:	d2968b04 	mov	x4, #0xb458                	// #46168
 4026988:	d2968b83 	mov	x3, #0xb45c                	// #46172
 402698c:	52800101 	mov	w1, #0x8                   	// #8
 4026990:	f2a22048 	movk	x8, #0x1102, lsl #16
 4026994:	f2a22047 	movk	x7, #0x1102, lsl #16
 4026998:	f2a22046 	movk	x6, #0x1102, lsl #16
 402699c:	f2a22045 	movk	x5, #0x1102, lsl #16
 40269a0:	f2a22044 	movk	x4, #0x1102, lsl #16
 40269a4:	f2a22043 	movk	x3, #0x1102, lsl #16
 40269a8:	29047fff 	stp	wzr, wzr, [sp, #32]
 40269ac:	29057fff 	stp	wzr, wzr, [sp, #40]
 40269b0:	29067fff 	stp	wzr, wzr, [sp, #48]
 40269b4:	29077fff 	stp	wzr, wzr, [sp, #56]
 40269b8:	29087fff 	stp	wzr, wzr, [sp, #64]
 40269bc:	b9400100 	ldr	w0, [x8]
 40269c0:	71000421 	subs	w1, w1, #0x1
 40269c4:	b9401fe2 	ldr	w2, [sp, #28]
 40269c8:	d3506409 	ubfx	x9, x0, #16, #10
 40269cc:	12002400 	and	w0, w0, #0x3ff
 40269d0:	0b090042 	add	w2, w2, w9
 40269d4:	b9001fe2 	str	w2, [sp, #28]
 40269d8:	b9401be2 	ldr	w2, [sp, #24]
 40269dc:	0b000040 	add	w0, w2, w0
 40269e0:	b9001be0 	str	w0, [sp, #24]
 40269e4:	b94027e2 	ldr	w2, [sp, #36]
 40269e8:	b94000e0 	ldr	w0, [x7]
 40269ec:	d3506409 	ubfx	x9, x0, #16, #10
 40269f0:	12002400 	and	w0, w0, #0x3ff
 40269f4:	0b090042 	add	w2, w2, w9
 40269f8:	b90027e2 	str	w2, [sp, #36]
 40269fc:	b94023e2 	ldr	w2, [sp, #32]
 4026a00:	0b000040 	add	w0, w2, w0
 4026a04:	b90023e0 	str	w0, [sp, #32]
 4026a08:	b9402fe2 	ldr	w2, [sp, #44]
 4026a0c:	b94000c0 	ldr	w0, [x6]
 4026a10:	d3506409 	ubfx	x9, x0, #16, #10
 4026a14:	12002400 	and	w0, w0, #0x3ff
 4026a18:	0b090042 	add	w2, w2, w9
 4026a1c:	b9002fe2 	str	w2, [sp, #44]
 4026a20:	b9402be2 	ldr	w2, [sp, #40]
 4026a24:	0b000040 	add	w0, w2, w0
 4026a28:	b9002be0 	str	w0, [sp, #40]
 4026a2c:	b94037e2 	ldr	w2, [sp, #52]
 4026a30:	b94000a0 	ldr	w0, [x5]
 4026a34:	d3506409 	ubfx	x9, x0, #16, #10
 4026a38:	12002400 	and	w0, w0, #0x3ff
 4026a3c:	0b090042 	add	w2, w2, w9
 4026a40:	b90037e2 	str	w2, [sp, #52]
 4026a44:	b94033e2 	ldr	w2, [sp, #48]
 4026a48:	0b000040 	add	w0, w2, w0
 4026a4c:	b90033e0 	str	w0, [sp, #48]
 4026a50:	b9403fe2 	ldr	w2, [sp, #60]
 4026a54:	b9400080 	ldr	w0, [x4]
 4026a58:	d3506409 	ubfx	x9, x0, #16, #10
 4026a5c:	12002400 	and	w0, w0, #0x3ff
 4026a60:	0b090042 	add	w2, w2, w9
 4026a64:	b9003fe2 	str	w2, [sp, #60]
 4026a68:	b9403be2 	ldr	w2, [sp, #56]
 4026a6c:	0b000040 	add	w0, w2, w0
 4026a70:	b9003be0 	str	w0, [sp, #56]
 4026a74:	b94047e2 	ldr	w2, [sp, #68]
 4026a78:	b9400060 	ldr	w0, [x3]
 4026a7c:	d3506409 	ubfx	x9, x0, #16, #10
 4026a80:	12002400 	and	w0, w0, #0x3ff
 4026a84:	0b090042 	add	w2, w2, w9
 4026a88:	b90047e2 	str	w2, [sp, #68]
 4026a8c:	b94043e2 	ldr	w2, [sp, #64]
 4026a90:	0b000040 	add	w0, w2, w0
 4026a94:	b90043e0 	str	w0, [sp, #64]
 4026a98:	54fff921 	b.ne	40269bc <start_svb+0x1d8>  // b.any
 4026a9c:	910063e0 	add	x0, sp, #0x18
 4026aa0:	97fffea3 	bl	402652c <hpm_value_avg.constprop.0>
 4026aa4:	2a0003e5 	mov	w5, w0
 4026aa8:	9100a3e0 	add	x0, sp, #0x28
 4026aac:	97fffea0 	bl	402652c <hpm_value_avg.constprop.0>
 4026ab0:	2a0003e4 	mov	w4, w0
 4026ab4:	9100e3e0 	add	x0, sp, #0x38
 4026ab8:	97fffe9d 	bl	402652c <hpm_value_avg.constprop.0>
 4026abc:	2a0003e3 	mov	w3, w0
 4026ac0:	d288e180 	mov	x0, #0x470c                	// #18188
 4026ac4:	f2a22040 	movk	x0, #0x1102, lsl #16
 4026ac8:	b9400014 	ldr	w20, [x0]
 4026acc:	b9401015 	ldr	w21, [x0, #16]
 4026ad0:	d2940100 	mov	x0, #0xa008                	// #40968
 4026ad4:	f2a22040 	movk	x0, #0x1102, lsl #16
 4026ad8:	b90017ff 	str	wzr, [sp, #20]
 4026adc:	12002298 	and	w24, w20, #0x1ff
 4026ae0:	120022b9 	and	w25, w21, #0x1ff
 4026ae4:	b9400000 	ldr	w0, [x0]
 4026ae8:	d3506294 	ubfx	x20, x20, #16, #9
 4026aec:	b90017e0 	str	w0, [sp, #20]
 4026af0:	d35062b5 	ubfx	x21, x21, #16, #9
 4026af4:	4b140316 	sub	w22, w24, w20
 4026af8:	4b150337 	sub	w23, w25, w21
 4026afc:	b94017e0 	ldr	w0, [sp, #20]
 4026b00:	12002400 	and	w0, w0, #0x3ff
 4026b04:	b90017e0 	str	w0, [sp, #20]
 4026b08:	528014a0 	mov	w0, #0xa5                  	// #165
 4026b0c:	b94017f3 	ldr	w19, [sp, #20]
 4026b10:	51021273 	sub	w19, w19, #0x84
 4026b14:	1b007e73 	mul	w19, w19, w0
 4026b18:	52806500 	mov	w0, #0x328                 	// #808
 4026b1c:	1ac00e73 	sdiv	w19, w19, w0
 4026b20:	d2802500 	mov	x0, #0x128                 	// #296
 4026b24:	f2a203c0 	movk	x0, #0x101e, lsl #16
 4026b28:	b9400002 	ldr	w2, [x0]
 4026b2c:	5100a27a 	sub	w26, w19, #0x28
 4026b30:	72002440 	ands	w0, w2, #0x3ff
 4026b34:	d34a4c41 	ubfx	x1, x2, #10, #10
 4026b38:	7a401824 	ccmp	w1, #0x0, #0x4, ne  // ne = any
 4026b3c:	54000060 	b.eq	4026b48 <start_svb+0x364>  // b.none
 4026b40:	d3547442 	ubfx	x2, x2, #20, #10
 4026b44:	35001562 	cbnz	w2, 4026df0 <start_svb+0x60c>
 4026b48:	71040cbf 	cmp	w5, #0x103
 4026b4c:	540008ed 	b.le	4026c68 <start_svb+0x484>
 4026b50:	7101b75f 	cmp	w26, #0x6d
 4026b54:	5400018d 	b.le	4026b84 <start_svb+0x3a0>
 4026b58:	528a3481 	mov	w1, #0x51a4                	// #20900
 4026b5c:	5280ae60 	mov	w0, #0x573                 	// #1395
 4026b60:	72bfff61 	movk	w1, #0xfffb, lsl #16
 4026b64:	1b0004a0 	madd	w0, w5, w0, w1
 4026b68:	5284e201 	mov	w1, #0x2710                	// #10000
 4026b6c:	1ac10800 	udiv	w0, w0, w1
 4026b70:	7104209f 	cmp	w4, #0x108
 4026b74:	540008ec 	b.gt	4026c90 <start_svb+0x4ac>
 4026b78:	7103f87f 	cmp	w3, #0xfe
 4026b7c:	54000ccc 	b.gt	4026d14 <start_svb+0x530>
 4026b80:	1400003f 	b	4026c7c <start_svb+0x498>
 4026b84:	7101675f 	cmp	w26, #0x59
 4026b88:	540002ad 	b.le	4026bdc <start_svb+0x3f8>
 4026b8c:	529ec381 	mov	w1, #0xf61c                	// #63004
 4026b90:	528072e0 	mov	w0, #0x397                 	// #919
 4026b94:	72bfff81 	movk	w1, #0xfffc, lsl #16
 4026b98:	1b0004a0 	madd	w0, w5, w0, w1
 4026b9c:	5284e201 	mov	w1, #0x2710                	// #10000
 4026ba0:	1ac10800 	udiv	w0, w0, w1
 4026ba4:	7104209f 	cmp	w4, #0x108
 4026ba8:	540024ad 	b.le	402703c <start_svb+0x858>
 4026bac:	52823242 	mov	w2, #0x1192                	// #4498
 4026bb0:	52806661 	mov	w1, #0x333                 	// #819
 4026bb4:	72bfffa2 	movk	w2, #0xfffd, lsl #16
 4026bb8:	1b010881 	madd	w1, w4, w1, w2
 4026bbc:	5284e202 	mov	w2, #0x2710                	// #10000
 4026bc0:	1ac20821 	udiv	w1, w1, w2
 4026bc4:	7103f87f 	cmp	w3, #0xfe
 4026bc8:	5400074d 	b.le	4026cb0 <start_svb+0x4cc>
 4026bcc:	52859846 	mov	w6, #0x2cc2                	// #11458
 4026bd0:	52806a62 	mov	w2, #0x353                 	// #851
 4026bd4:	72bfffa6 	movk	w6, #0xfffd, lsl #16
 4026bd8:	14000053 	b	4026d24 <start_svb+0x540>
 4026bdc:	7101175f 	cmp	w26, #0x45
 4026be0:	540002ad 	b.le	4026c34 <start_svb+0x450>
 4026be4:	52853101 	mov	w1, #0x2988                	// #10632
 4026be8:	528044c0 	mov	w0, #0x226                 	// #550
 4026bec:	72bfffc1 	movk	w1, #0xfffe, lsl #16
 4026bf0:	1b0004a0 	madd	w0, w5, w0, w1
 4026bf4:	5284e201 	mov	w1, #0x2710                	// #10000
 4026bf8:	1ac10800 	udiv	w0, w0, w1
 4026bfc:	7104209f 	cmp	w4, #0x108
 4026c00:	5400226d 	b.le	402704c <start_svb+0x868>
 4026c04:	528f66a2 	mov	w2, #0x7b35                	// #31541
 4026c08:	528034c1 	mov	w1, #0x1a6                 	// #422
 4026c0c:	72bfffc2 	movk	w2, #0xfffe, lsl #16
 4026c10:	1b010881 	madd	w1, w4, w1, w2
 4026c14:	5284e202 	mov	w2, #0x2710                	// #10000
 4026c18:	1ac20821 	udiv	w1, w1, w2
 4026c1c:	7103f87f 	cmp	w3, #0xfe
 4026c20:	5400048d 	b.le	4026cb0 <start_svb+0x4cc>
 4026c24:	52893846 	mov	w6, #0x49c2                	// #18882
 4026c28:	528040a2 	mov	w2, #0x205                 	// #517
 4026c2c:	72bfffc6 	movk	w6, #0xfffe, lsl #16
 4026c30:	1400003d 	b	4026d24 <start_svb+0x540>
 4026c34:	36f81f3a 	tbz	w26, #31, 4027018 <start_svb+0x834>
 4026c38:	528f0861 	mov	w1, #0x7843                	// #30787
 4026c3c:	12803ba0 	mov	w0, #0xfffffe22            	// #-478
 4026c40:	72a00021 	movk	w1, #0x1, lsl #16
 4026c44:	1b0004a0 	madd	w0, w5, w0, w1
 4026c48:	5284e201 	mov	w1, #0x2710                	// #10000
 4026c4c:	1ac10c00 	sdiv	w0, w0, w1
 4026c50:	7104209f 	cmp	w4, #0x108
 4026c54:	540003cc 	b.gt	4026ccc <start_svb+0x4e8>
 4026c58:	7103f87f 	cmp	w3, #0xfe
 4026c5c:	5400010d 	b.le	4026c7c <start_svb+0x498>
 4026c60:	52800001 	mov	w1, #0x0                   	// #0
 4026c64:	14000022 	b	4026cec <start_svb+0x508>
 4026c68:	7104209f 	cmp	w4, #0x108
 4026c6c:	540000cc 	b.gt	4026c84 <start_svb+0x4a0>
 4026c70:	7103f87f 	cmp	w3, #0xfe
 4026c74:	540004ac 	b.gt	4026d08 <start_svb+0x524>
 4026c78:	52800000 	mov	w0, #0x0                   	// #0
 4026c7c:	52800001 	mov	w1, #0x0                   	// #0
 4026c80:	1400000c 	b	4026cb0 <start_svb+0x4cc>
 4026c84:	52800000 	mov	w0, #0x0                   	// #0
 4026c88:	7101b75f 	cmp	w26, #0x6d
 4026c8c:	5400016d 	b.le	4026cb8 <start_svb+0x4d4>
 4026c90:	529a2d42 	mov	w2, #0xd16a                	// #53610
 4026c94:	52809601 	mov	w1, #0x4b0                 	// #1200
 4026c98:	72bfff62 	movk	w2, #0xfffb, lsl #16
 4026c9c:	1b010881 	madd	w1, w4, w1, w2
 4026ca0:	5284e202 	mov	w2, #0x2710                	// #10000
 4026ca4:	1ac20821 	udiv	w1, w1, w2
 4026ca8:	7103f87f 	cmp	w3, #0xfe
 4026cac:	5400036c 	b.gt	4026d18 <start_svb+0x534>
 4026cb0:	52800002 	mov	w2, #0x0                   	// #0
 4026cb4:	1400001f 	b	4026d30 <start_svb+0x54c>
 4026cb8:	7101675f 	cmp	w26, #0x59
 4026cbc:	54fff78c 	b.gt	4026bac <start_svb+0x3c8>
 4026cc0:	7101175f 	cmp	w26, #0x45
 4026cc4:	54fffa0c 	b.gt	4026c04 <start_svb+0x420>
 4026cc8:	36fffdba 	tbz	w26, #31, 4026c7c <start_svb+0x498>
 4026ccc:	5297c1c2 	mov	w2, #0xbe0e                	// #48654
 4026cd0:	12803781 	mov	w1, #0xfffffe43            	// #-445
 4026cd4:	72a00022 	movk	w2, #0x1, lsl #16
 4026cd8:	1b010881 	madd	w1, w4, w1, w2
 4026cdc:	5284e202 	mov	w2, #0x2710                	// #10000
 4026ce0:	1ac20c21 	sdiv	w1, w1, w2
 4026ce4:	7103f87f 	cmp	w3, #0xfe
 4026ce8:	54fffe4d 	b.le	4026cb0 <start_svb+0x4cc>
 4026cec:	5292ce46 	mov	w6, #0x9672                	// #38514
 4026cf0:	12803e22 	mov	w2, #0xfffffe0e            	// #-498
 4026cf4:	72a00026 	movk	w6, #0x1, lsl #16
 4026cf8:	1b021862 	madd	w2, w3, w2, w6
 4026cfc:	5284e206 	mov	w6, #0x2710                	// #10000
 4026d00:	1ac60c42 	sdiv	w2, w2, w6
 4026d04:	1400000b 	b	4026d30 <start_svb+0x54c>
 4026d08:	7101b75f 	cmp	w26, #0x6d
 4026d0c:	540018ed 	b.le	4027028 <start_svb+0x844>
 4026d10:	52800000 	mov	w0, #0x0                   	// #0
 4026d14:	52800001 	mov	w1, #0x0                   	// #0
 4026d18:	52882bc6 	mov	w6, #0x415e                	// #16734
 4026d1c:	52808f82 	mov	w2, #0x47c                 	// #1148
 4026d20:	72bfff86 	movk	w6, #0xfffc, lsl #16
 4026d24:	1b021862 	madd	w2, w3, w2, w6
 4026d28:	5284e206 	mov	w6, #0x2710                	// #10000
 4026d2c:	1ac60842 	udiv	w2, w2, w6
 4026d30:	0b050000 	add	w0, w0, w5
 4026d34:	0b020062 	add	w2, w3, w2
 4026d38:	0b010081 	add	w1, w4, w1
 4026d3c:	52800024 	mov	w4, #0x1                   	// #1
 4026d40:	12002405 	and	w5, w0, #0x3ff
 4026d44:	53162423 	ubfiz	w3, w1, #10, #10
 4026d48:	2a050063 	orr	w3, w3, w5
 4026d4c:	530c2445 	ubfiz	w5, w2, #20, #10
 4026d50:	2a050063 	orr	w3, w3, w5
 4026d54:	2a047863 	orr	w3, w3, w4, lsl #30
 4026d58:	d2806804 	mov	x4, #0x340                 	// #832
 4026d5c:	f2a22044 	movk	x4, #0x1102, lsl #16
 4026d60:	b9000083 	str	w3, [x4]
 4026d64:	d2802403 	mov	x3, #0x120                 	// #288
 4026d68:	f2a203c3 	movk	x3, #0x101e, lsl #16
 4026d6c:	b90013ff 	str	wzr, [sp, #16]
 4026d70:	b9400063 	ldr	w3, [x3]
 4026d74:	b90013e3 	str	w3, [sp, #16]
 4026d78:	d2802683 	mov	x3, #0x134                 	// #308
 4026d7c:	f2a22043 	movk	x3, #0x1102, lsl #16
 4026d80:	b9400063 	ldr	w3, [x3]
 4026d84:	b9000be3 	str	w3, [sp, #8]
 4026d88:	b9400be3 	ldr	w3, [sp, #8]
 4026d8c:	12000463 	and	w3, w3, #0x3
 4026d90:	7100047f 	cmp	w3, #0x1
 4026d94:	b9400be3 	ldr	w3, [sp, #8]
 4026d98:	54000a61 	b.ne	4026ee4 <start_svb+0x700>  // b.any
 4026d9c:	d3421463 	ubfx	x3, x3, #2, #4
 4026da0:	7100047f 	cmp	w3, #0x1
 4026da4:	540002a1 	b.ne	4026df8 <start_svb+0x614>  // b.any
 4026da8:	b94013e4 	ldr	w4, [sp, #16]
 4026dac:	52802023 	mov	w3, #0x101                 	// #257
 4026db0:	72a00443 	movk	w3, #0x22, lsl #16
 4026db4:	6b03009f 	cmp	w4, w3
 4026db8:	54000201 	b.ne	4026df8 <start_svb+0x614>  // b.any
 4026dbc:	b0000043 	adrp	x3, 402f000 <malloc_sizes_ro+0x190>
 4026dc0:	91064063 	add	x3, x3, #0x190
 4026dc4:	97fffdfc 	bl	40265b4 <set_volt>
 4026dc8:	14000027 	b	4026e64 <start_svb+0x680>
 4026dcc:	7101175f 	cmp	w26, #0x45
 4026dd0:	5400008d 	b.le	4026de0 <start_svb+0x5fc>
 4026dd4:	52800001 	mov	w1, #0x0                   	// #0
 4026dd8:	52800000 	mov	w0, #0x0                   	// #0
 4026ddc:	17ffff92 	b	4026c24 <start_svb+0x440>
 4026de0:	36fff4da 	tbz	w26, #31, 4026c78 <start_svb+0x494>
 4026de4:	52800001 	mov	w1, #0x0                   	// #0
 4026de8:	52800000 	mov	w0, #0x0                   	// #0
 4026dec:	17ffffc0 	b	4026cec <start_svb+0x508>
 4026df0:	52800004 	mov	w4, #0x0                   	// #0
 4026df4:	17ffffd3 	b	4026d40 <start_svb+0x55c>
 4026df8:	b9400be3 	ldr	w3, [sp, #8]
 4026dfc:	d3421463 	ubfx	x3, x3, #2, #4
 4026e00:	7100087f 	cmp	w3, #0x2
 4026e04:	54000141 	b.ne	4026e2c <start_svb+0x648>  // b.any
 4026e08:	b94013e4 	ldr	w4, [sp, #16]
 4026e0c:	52802023 	mov	w3, #0x101                 	// #257
 4026e10:	72a00443 	movk	w3, #0x22, lsl #16
 4026e14:	6b03009f 	cmp	w4, w3
 4026e18:	540000a1 	b.ne	4026e2c <start_svb+0x648>  // b.any
 4026e1c:	b0000043 	adrp	x3, 402f000 <malloc_sizes_ro+0x190>
 4026e20:	91064063 	add	x3, x3, #0x190
 4026e24:	9100f063 	add	x3, x3, #0x3c
 4026e28:	17ffffe7 	b	4026dc4 <start_svb+0x5e0>
 4026e2c:	b9400be3 	ldr	w3, [sp, #8]
 4026e30:	d3421463 	ubfx	x3, x3, #2, #4
 4026e34:	71000c7f 	cmp	w3, #0x3
 4026e38:	54000141 	b.ne	4026e60 <start_svb+0x67c>  // b.any
 4026e3c:	b94013e4 	ldr	w4, [sp, #16]
 4026e40:	52802043 	mov	w3, #0x102                 	// #258
 4026e44:	72a00443 	movk	w3, #0x22, lsl #16
 4026e48:	6b03009f 	cmp	w4, w3
 4026e4c:	540000a1 	b.ne	4026e60 <start_svb+0x67c>  // b.any
 4026e50:	b0000043 	adrp	x3, 402f000 <malloc_sizes_ro+0x190>
 4026e54:	91064063 	add	x3, x3, #0x190
 4026e58:	9101e063 	add	x3, x3, #0x78
 4026e5c:	17ffffda 	b	4026dc4 <start_svb+0x5e0>
 4026e60:	97fffda4 	bl	40264f0 <svb_error>
 4026e64:	d2806a80 	mov	x0, #0x354                 	// #852
 4026e68:	f2a22040 	movk	x0, #0x1102, lsl #16
 4026e6c:	b9400002 	ldr	w2, [x0]
 4026e70:	37f808da 	tbnz	w26, #31, 4026f88 <start_svb+0x7a4>
 4026e74:	12001f41 	and	w1, w26, #0xff
 4026e78:	52800000 	mov	w0, #0x0                   	// #0
 4026e7c:	33001c20 	bfxil	w0, w1, #0, #8
 4026e80:	33101c22 	bfi	w2, w1, #16, #8
 4026e84:	d2806a81 	mov	x1, #0x354                 	// #852
 4026e88:	f2a22041 	movk	x1, #0x1102, lsl #16
 4026e8c:	b9000022 	str	w2, [x1]
 4026e90:	3100535f 	cmn	w26, #0x14
 4026e94:	540008ea 	b.ge	4026fb0 <start_svb+0x7cc>  // b.tcont
 4026e98:	12106c00 	and	w0, w0, #0xffff0fff
 4026e9c:	36f80076 	tbz	w22, #31, 4026ea8 <start_svb+0x6c4>
 4026ea0:	32090000 	orr	w0, w0, #0x800000
 4026ea4:	4b180296 	sub	w22, w20, w24
 4026ea8:	33101ac0 	bfi	w0, w22, #16, #7
 4026eac:	36f80077 	tbz	w23, #31, 4026eb8 <start_svb+0x6d4>
 4026eb0:	32010000 	orr	w0, w0, #0x80000000
 4026eb4:	4b1902b7 	sub	w23, w21, w25
 4026eb8:	d2806a01 	mov	x1, #0x350                 	// #848
 4026ebc:	33081ae0 	bfi	w0, w23, #24, #7
 4026ec0:	f2a22041 	movk	x1, #0x1102, lsl #16
 4026ec4:	b9000020 	str	w0, [x1]
 4026ec8:	f0ffffc0 	adrp	x0, 4021000 <hash_verify_buf-0xa80>
 4026ecc:	f94027e1 	ldr	x1, [sp, #72]
 4026ed0:	f9455002 	ldr	x2, [x0, #2720]
 4026ed4:	eb020021 	subs	x1, x1, x2
 4026ed8:	d2800002 	mov	x2, #0x0                   	// #0
 4026edc:	540008e0 	b.eq	4026ff8 <start_svb+0x814>  // b.none
 4026ee0:	97fff4a3 	bl	402416c <__stack_chk_fail>
 4026ee4:	f240047f 	tst	x3, #0x3
 4026ee8:	54fffbc1 	b.ne	4026e60 <start_svb+0x67c>  // b.any
 4026eec:	b9400be3 	ldr	w3, [sp, #8]
 4026ef0:	d3421463 	ubfx	x3, x3, #2, #4
 4026ef4:	7100047f 	cmp	w3, #0x1
 4026ef8:	54000141 	b.ne	4026f20 <start_svb+0x73c>  // b.any
 4026efc:	b94013e4 	ldr	w4, [sp, #16]
 4026f00:	52802023 	mov	w3, #0x101                 	// #257
 4026f04:	72a00443 	movk	w3, #0x22, lsl #16
 4026f08:	6b03009f 	cmp	w4, w3
 4026f0c:	540000a1 	b.ne	4026f20 <start_svb+0x73c>  // b.any
 4026f10:	b0000043 	adrp	x3, 402f000 <malloc_sizes_ro+0x190>
 4026f14:	91064063 	add	x3, x3, #0x190
 4026f18:	9102d063 	add	x3, x3, #0xb4
 4026f1c:	17ffffaa 	b	4026dc4 <start_svb+0x5e0>
 4026f20:	b9400be3 	ldr	w3, [sp, #8]
 4026f24:	d3421463 	ubfx	x3, x3, #2, #4
 4026f28:	7100087f 	cmp	w3, #0x2
 4026f2c:	54000141 	b.ne	4026f54 <start_svb+0x770>  // b.any
 4026f30:	b94013e4 	ldr	w4, [sp, #16]
 4026f34:	52802023 	mov	w3, #0x101                 	// #257
 4026f38:	72a00443 	movk	w3, #0x22, lsl #16
 4026f3c:	6b03009f 	cmp	w4, w3
 4026f40:	540000a1 	b.ne	4026f54 <start_svb+0x770>  // b.any
 4026f44:	b0000043 	adrp	x3, 402f000 <malloc_sizes_ro+0x190>
 4026f48:	91064063 	add	x3, x3, #0x190
 4026f4c:	9103c063 	add	x3, x3, #0xf0
 4026f50:	17ffff9d 	b	4026dc4 <start_svb+0x5e0>
 4026f54:	b9400be3 	ldr	w3, [sp, #8]
 4026f58:	d3421463 	ubfx	x3, x3, #2, #4
 4026f5c:	71000c7f 	cmp	w3, #0x3
 4026f60:	54fff801 	b.ne	4026e60 <start_svb+0x67c>  // b.any
 4026f64:	b94013e4 	ldr	w4, [sp, #16]
 4026f68:	52802043 	mov	w3, #0x102                 	// #258
 4026f6c:	72a00443 	movk	w3, #0x22, lsl #16
 4026f70:	6b03009f 	cmp	w4, w3
 4026f74:	54fff761 	b.ne	4026e60 <start_svb+0x67c>  // b.any
 4026f78:	b0000043 	adrp	x3, 402f000 <malloc_sizes_ro+0x190>
 4026f7c:	91064063 	add	x3, x3, #0x190
 4026f80:	9104b063 	add	x3, x3, #0x12c
 4026f84:	17ffff90 	b	4026dc4 <start_svb+0x5e0>
 4026f88:	52800021 	mov	w1, #0x1                   	// #1
 4026f8c:	52800000 	mov	w0, #0x0                   	// #0
 4026f90:	33180c20 	bfi	w0, w1, #8, #4
 4026f94:	52800501 	mov	w1, #0x28                  	// #40
 4026f98:	4b130033 	sub	w19, w1, w19
 4026f9c:	32080042 	orr	w2, w2, #0x1000000
 4026fa0:	12001e73 	and	w19, w19, #0xff
 4026fa4:	33001e60 	bfxil	w0, w19, #0, #8
 4026fa8:	33101e62 	bfi	w2, w19, #16, #8
 4026fac:	17ffffb6 	b	4026e84 <start_svb+0x6a0>
 4026fb0:	36f8009a 	tbz	w26, #31, 4026fc0 <start_svb+0x7dc>
 4026fb4:	52800021 	mov	w1, #0x1                   	// #1
 4026fb8:	33140c20 	bfi	w0, w1, #12, #4
 4026fbc:	17ffffb8 	b	4026e9c <start_svb+0x6b8>
 4026fc0:	71008b5f 	cmp	w26, #0x22
 4026fc4:	5400006c 	b.gt	4026fd0 <start_svb+0x7ec>
 4026fc8:	52800041 	mov	w1, #0x2                   	// #2
 4026fcc:	17fffffb 	b	4026fb8 <start_svb+0x7d4>
 4026fd0:	71012b5f 	cmp	w26, #0x4a
 4026fd4:	5400006c 	b.gt	4026fe0 <start_svb+0x7fc>
 4026fd8:	52800061 	mov	w1, #0x3                   	// #3
 4026fdc:	17fffff7 	b	4026fb8 <start_svb+0x7d4>
 4026fe0:	7101cb5f 	cmp	w26, #0x72
 4026fe4:	5400006c 	b.gt	4026ff0 <start_svb+0x80c>
 4026fe8:	52800081 	mov	w1, #0x4                   	// #4
 4026fec:	17fffff3 	b	4026fb8 <start_svb+0x7d4>
 4026ff0:	528000a1 	mov	w1, #0x5                   	// #5
 4026ff4:	17fffff1 	b	4026fb8 <start_svb+0x7d4>
 4026ff8:	a94553f3 	ldp	x19, x20, [sp, #80]
 4026ffc:	d28000c0 	mov	x0, #0x6                   	// #6
 4027000:	a9465bf5 	ldp	x21, x22, [sp, #96]
 4027004:	a94763f7 	ldp	x23, x24, [sp, #112]
 4027008:	a9486bf9 	ldp	x25, x26, [sp, #128]
 402700c:	f9404bfe 	ldr	x30, [sp, #144]
 4027010:	910283ff 	add	sp, sp, #0xa0
 4027014:	14000350 	b	4027d54 <mdelay>
 4027018:	7104209f 	cmp	w4, #0x108
 402701c:	54ffe2ec 	b.gt	4026c78 <start_svb+0x494>
 4027020:	7103f87f 	cmp	w3, #0xfe
 4027024:	54ffe2ad 	b.le	4026c78 <start_svb+0x494>
 4027028:	7101675f 	cmp	w26, #0x59
 402702c:	54ffed0d 	b.le	4026dcc <start_svb+0x5e8>
 4027030:	52800001 	mov	w1, #0x0                   	// #0
 4027034:	52800000 	mov	w0, #0x0                   	// #0
 4027038:	17fffee5 	b	4026bcc <start_svb+0x3e8>
 402703c:	7103f87f 	cmp	w3, #0xfe
 4027040:	54ffe1ed 	b.le	4026c7c <start_svb+0x498>
 4027044:	52800001 	mov	w1, #0x0                   	// #0
 4027048:	17fffee1 	b	4026bcc <start_svb+0x3e8>
 402704c:	7103f87f 	cmp	w3, #0xfe
 4027050:	54ffe16d 	b.le	4026c7c <start_svb+0x498>
 4027054:	52800001 	mov	w1, #0x0                   	// #0
 4027058:	17fffef3 	b	4026c24 <start_svb+0x440>

000000000402705c <end_svb>:
 402705c:	f81e0ffe 	str	x30, [sp, #-32]!
 4027060:	d2806881 	mov	x1, #0x344                 	// #836
 4027064:	f2a22041 	movk	x1, #0x1102, lsl #16
 4027068:	52807442 	mov	w2, #0x3a2                 	// #930
 402706c:	b9001bff 	str	wzr, [sp, #24]
 4027070:	b9001fff 	str	wzr, [sp, #28]
 4027074:	b9400020 	ldr	w0, [x1]
 4027078:	12003c00 	and	w0, w0, #0xffff
 402707c:	b9001be0 	str	w0, [sp, #24]
 4027080:	b9401be0 	ldr	w0, [sp, #24]
 4027084:	710e881f 	cmp	w0, #0x3a2
 4027088:	1a822000 	csel	w0, w0, w2, cs  // cs = hs, nlast
 402708c:	b9001be0 	str	w0, [sp, #24]
 4027090:	b9400020 	ldr	w0, [x1]
 4027094:	12103c00 	and	w0, w0, #0xffff0000
 4027098:	b9001fe0 	str	w0, [sp, #28]
 402709c:	b9401fe0 	ldr	w0, [sp, #28]
 40270a0:	b9401be2 	ldr	w2, [sp, #24]
 40270a4:	2a020000 	orr	w0, w0, w2
 40270a8:	b9001fe0 	str	w0, [sp, #28]
 40270ac:	b9401fe0 	ldr	w0, [sp, #28]
 40270b0:	b9000020 	str	w0, [x1]
 40270b4:	52808361 	mov	w1, #0x41b                 	// #1051
 40270b8:	b9401be0 	ldr	w0, [sp, #24]
 40270bc:	97fffd2a 	bl	4026564 <calc_volt_regval.constprop.0>
 40270c0:	b9001be0 	str	w0, [sp, #24]
 40270c4:	52920001 	mov	w1, #0x9000                	// #36864
 40270c8:	b9401be0 	ldr	w0, [sp, #24]
 40270cc:	72a22041 	movk	w1, #0x1102, lsl #16
 40270d0:	97fffd02 	bl	40264d8 <svb_pwm_cfg>
 40270d4:	f84207fe 	ldr	x30, [sp], #32
 40270d8:	d28000c0 	mov	x0, #0x6                   	// #6
 40270dc:	1400031e 	b	4027d54 <mdelay>

00000000040270e0 <reg_read>:
 40270e0:	b9400002 	ldr	w2, [x0]
 40270e4:	b9400c04 	ldr	w4, [x0, #12]
 40270e8:	b9400042 	ldr	w2, [x2]
 40270ec:	d3535c85 	ubfx	x5, x4, #19, #5
 40270f0:	110004a6 	add	w6, w5, #0x1
 40270f4:	71007cbf 	cmp	w5, #0x1f
 40270f8:	540000e0 	b.eq	4027114 <reg_read+0x34>  // b.none
 40270fc:	531b7c84 	lsr	w4, w4, #27
 4027100:	52800023 	mov	w3, #0x1                   	// #1
 4027104:	1ac62063 	lsl	w3, w3, w6
 4027108:	51000463 	sub	w3, w3, #0x1
 402710c:	1ac42442 	lsr	w2, w2, w4
 4027110:	0a020062 	and	w2, w3, w2
 4027114:	b9400400 	ldr	w0, [x0, #4]
 4027118:	6b02001f 	cmp	w0, w2
 402711c:	1a9f07e0 	cset	w0, ne  // ne = any
 4027120:	b9000020 	str	w0, [x1]
 4027124:	d65f03c0 	ret

0000000004027128 <reg_write>:
 4027128:	29400801 	ldp	w1, w2, [x0]
 402712c:	29410c04 	ldp	w4, w3, [x0, #8]
 4027130:	b9400026 	ldr	w6, [x1]
 4027134:	d3431c65 	ubfx	x5, x3, #3, #5
 4027138:	110004a7 	add	w7, w5, #0x1
 402713c:	71007cbf 	cmp	w5, #0x1f
 4027140:	54000120 	b.eq	4027164 <reg_write+0x3c>  // b.none
 4027144:	52800021 	mov	w1, #0x1                   	// #1
 4027148:	d34b3c63 	ubfx	x3, x3, #11, #5
 402714c:	1ac72021 	lsl	w1, w1, w7
 4027150:	51000421 	sub	w1, w1, #0x1
 4027154:	1ac32042 	lsl	w2, w2, w3
 4027158:	1ac32021 	lsl	w1, w1, w3
 402715c:	0a2100c1 	bic	w1, w6, w1
 4027160:	2a010042 	orr	w2, w2, w1
 4027164:	b9400000 	ldr	w0, [x0]
 4027168:	b9000002 	str	w2, [x0]
 402716c:	d503201f 	nop
 4027170:	2a0403e0 	mov	w0, w4
 4027174:	51000484 	sub	w4, w4, #0x1
 4027178:	35ffffa0 	cbnz	w0, 402716c <reg_write+0x44>
 402717c:	d65f03c0 	ret

0000000004027180 <init_registers>:
 4027180:	d10083ff 	sub	sp, sp, #0x20
 4027184:	2a0103eb 	mov	w11, w1
 4027188:	2a0003e9 	mov	w9, w0
 402718c:	d0ffffc1 	adrp	x1, 4021000 <hash_verify_buf-0xa80>
 4027190:	5280000a 	mov	w10, #0x0                   	// #0
 4027194:	f9000bfe 	str	x30, [sp, #16]
 4027198:	f9455022 	ldr	x2, [x1, #2720]
 402719c:	f90007e2 	str	x2, [sp, #8]
 40271a0:	d2800002 	mov	x2, #0x0                   	// #0
 40271a4:	d37c7d40 	ubfiz	x0, x10, #4, #32
 40271a8:	8b000128 	add	x8, x9, x0
 40271ac:	b8606920 	ldr	w0, [x9, x0]
 40271b0:	29410907 	ldp	w7, w2, [x8, #8]
 40271b4:	350001a0 	cbnz	w0, 40271e8 <init_registers+0x68>
 40271b8:	b9400500 	ldr	w0, [x8, #4]
 40271bc:	2a070043 	orr	w3, w2, w7
 40271c0:	2a000063 	orr	w3, w3, w0
 40271c4:	35000123 	cbnz	w3, 40271e8 <init_registers+0x68>
 40271c8:	d503201f 	nop
 40271cc:	d0ffffc0 	adrp	x0, 4021000 <hash_verify_buf-0xa80>
 40271d0:	f94007e1 	ldr	x1, [sp, #8]
 40271d4:	f9455002 	ldr	x2, [x0, #2720]
 40271d8:	eb020021 	subs	x1, x1, x2
 40271dc:	d2800002 	mov	x2, #0x0                   	// #0
 40271e0:	54000580 	b.eq	4027290 <init_registers+0x110>  // b.none
 40271e4:	97fff3e2 	bl	402416c <__stack_chk_fail>
 40271e8:	b90007ff 	str	wzr, [sp, #4]
 40271ec:	340002eb 	cbz	w11, 4027248 <init_registers+0xc8>
 40271f0:	36080082 	tbz	w2, #1, 4027200 <init_registers+0x80>
 40271f4:	aa0803e0 	mov	x0, x8
 40271f8:	97ffffcc 	bl	4027128 <reg_write>
 40271fc:	1400000c 	b	402722c <init_registers+0xac>
 4027200:	368801a2 	tbz	w2, #17, 4027234 <init_registers+0xb4>
 4027204:	910013e1 	add	x1, sp, #0x4
 4027208:	aa0803e0 	mov	x0, x8
 402720c:	97ffffb5 	bl	40270e0 <reg_read>
 4027210:	d503201f 	nop
 4027214:	b94007e0 	ldr	w0, [sp, #4]
 4027218:	35ffff60 	cbnz	w0, 4027204 <init_registers+0x84>
 402721c:	d503201f 	nop
 4027220:	2a0703e0 	mov	w0, w7
 4027224:	510004e7 	sub	w7, w7, #0x1
 4027228:	35ffffa0 	cbnz	w0, 402721c <init_registers+0x9c>
 402722c:	1100054a 	add	w10, w10, #0x1
 4027230:	17ffffdd 	b	40271a4 <init_registers+0x24>
 4027234:	d503201f 	nop
 4027238:	2a0703e0 	mov	w0, w7
 402723c:	510004e7 	sub	w7, w7, #0x1
 4027240:	35ffffa0 	cbnz	w0, 4027234 <init_registers+0xb4>
 4027244:	17fffffa 	b	402722c <init_registers+0xac>
 4027248:	3717fd62 	tbnz	w2, #2, 40271f4 <init_registers+0x74>
 402724c:	36900182 	tbz	w2, #18, 402727c <init_registers+0xfc>
 4027250:	910013e1 	add	x1, sp, #0x4
 4027254:	aa0803e0 	mov	x0, x8
 4027258:	97ffffa2 	bl	40270e0 <reg_read>
 402725c:	d503201f 	nop
 4027260:	b94007e0 	ldr	w0, [sp, #4]
 4027264:	35ffff60 	cbnz	w0, 4027250 <init_registers+0xd0>
 4027268:	d503201f 	nop
 402726c:	2a0703e0 	mov	w0, w7
 4027270:	510004e7 	sub	w7, w7, #0x1
 4027274:	35ffffa0 	cbnz	w0, 4027268 <init_registers+0xe8>
 4027278:	17ffffed 	b	402722c <init_registers+0xac>
 402727c:	d503201f 	nop
 4027280:	2a0703e0 	mov	w0, w7
 4027284:	510004e7 	sub	w7, w7, #0x1
 4027288:	35ffffa0 	cbnz	w0, 402727c <init_registers+0xfc>
 402728c:	17ffffe8 	b	402722c <init_registers+0xac>
 4027290:	f9400bfe 	ldr	x30, [sp, #16]
 4027294:	910083ff 	add	sp, sp, #0x20
 4027298:	d65f03c0 	ret

000000000402729c <bsp_ddrtrn_retrain_enable>:
 402729c:	1400129e 	b	402bd14 <ddrtrn_retrain_enable>

00000000040272a0 <bsp_ddrtrn_training_item>:
 40272a0:	d10283ff 	sub	sp, sp, #0xa0
 40272a4:	a90853f3 	stp	x19, x20, [sp, #128]
 40272a8:	2a0003f4 	mov	w20, w0
 40272ac:	2a0103f3 	mov	w19, w1
 40272b0:	a9097bf5 	stp	x21, x30, [sp, #144]
 40272b4:	d0ffffc0 	adrp	x0, 4021000 <hash_verify_buf-0xa80>
 40272b8:	2a0203f5 	mov	w21, w2
 40272bc:	f9455001 	ldr	x1, [x0, #2720]
 40272c0:	f9003fe1 	str	x1, [sp, #120]
 40272c4:	d2800001 	mov	x1, #0x0                   	// #0
 40272c8:	910003e0 	mov	x0, sp
 40272cc:	9100e3e1 	add	x1, sp, #0x38
 40272d0:	940004ce 	bl	4028608 <ddrtrn_hal_set_cfg_addr>
 40272d4:	2a1503e1 	mov	w1, w21
 40272d8:	2a1403e0 	mov	w0, w20
 40272dc:	9400055f 	bl	4028858 <ddrtrn_hw_training_init>
 40272e0:	3100041f 	cmn	w0, #0x1
 40272e4:	54000121 	b.ne	4027308 <bsp_ddrtrn_training_item+0x68>  // b.any
 40272e8:	12800000 	mov	w0, #0xffffffff            	// #-1
 40272ec:	d0ffffc1 	adrp	x1, 4021000 <hash_verify_buf-0xa80>
 40272f0:	f9403fe2 	ldr	x2, [sp, #120]
 40272f4:	f9455023 	ldr	x3, [x1, #2720]
 40272f8:	eb030042 	subs	x2, x2, x3
 40272fc:	d2800003 	mov	x3, #0x0                   	// #0
 4027300:	54000140 	b.eq	4027328 <bsp_ddrtrn_training_item+0x88>  // b.none
 4027304:	97fff39a 	bl	402416c <__stack_chk_fail>
 4027308:	2a1303e0 	mov	w0, w19
 402730c:	940004ac 	bl	40285bc <ddrtrn_sw_training_if>
 4027310:	3100041f 	cmn	w0, #0x1
 4027314:	54fffea0 	b.eq	40272e8 <bsp_ddrtrn_training_item+0x48>  // b.none
 4027318:	9400146c 	bl	402c4c8 <bsp_ddrtrn_suspend>
 402731c:	3100041f 	cmn	w0, #0x1
 4027320:	5a9f13e0 	csetm	w0, eq  // eq = none
 4027324:	17fffff2 	b	40272ec <bsp_ddrtrn_training_item+0x4c>
 4027328:	a94853f3 	ldp	x19, x20, [sp, #128]
 402732c:	a9497bf5 	ldp	x21, x30, [sp, #144]
 4027330:	910283ff 	add	sp, sp, #0xa0
 4027334:	d65f03c0 	ret

0000000004027338 <bsp_ddrtrn_capat_adapt>:
 4027338:	d10243ff 	sub	sp, sp, #0x90
 402733c:	d0ffffc0 	adrp	x0, 4021000 <hash_verify_buf-0xa80>
 4027340:	f90043fe 	str	x30, [sp, #128]
 4027344:	f9455001 	ldr	x1, [x0, #2720]
 4027348:	f9003fe1 	str	x1, [sp, #120]
 402734c:	d2800001 	mov	x1, #0x0                   	// #0
 4027350:	910003e0 	mov	x0, sp
 4027354:	9100e3e1 	add	x1, sp, #0x38
 4027358:	940004ac 	bl	4028608 <ddrtrn_hal_set_cfg_addr>
 402735c:	940005e2 	bl	4028ae4 <ddrtrn_capat_adapt_func>
 4027360:	d0ffffc1 	adrp	x1, 4021000 <hash_verify_buf-0xa80>
 4027364:	f9403fe2 	ldr	x2, [sp, #120]
 4027368:	f9455023 	ldr	x3, [x1, #2720]
 402736c:	eb030042 	subs	x2, x2, x3
 4027370:	d2800003 	mov	x3, #0x0                   	// #0
 4027374:	54000040 	b.eq	402737c <bsp_ddrtrn_capat_adapt+0x44>  // b.none
 4027378:	97fff37d 	bl	402416c <__stack_chk_fail>
 402737c:	f94043fe 	ldr	x30, [sp, #128]
 4027380:	910243ff 	add	sp, sp, #0x90
 4027384:	d65f03c0 	ret

0000000004027388 <bsp_ddrtrn_dmc_auto_power_down_cfg>:
 4027388:	1400125d 	b	402bcfc <ddrtrn_dmc_auto_power_down_cfg>

000000000402738c <send_board_type_to_uart>:
 402738c:	d10183ff 	sub	sp, sp, #0x60
 4027390:	d2800203 	mov	x3, #0x10                  	// #16
 4027394:	52800002 	mov	w2, #0x0                   	// #0
 4027398:	a90353f3 	stp	x19, x20, [sp, #48]
 402739c:	a9045bf5 	stp	x21, x22, [sp, #64]
 40273a0:	2a0003f5 	mov	w21, w0
 40273a4:	d0ffffc0 	adrp	x0, 4021000 <hash_verify_buf-0xa80>
 40273a8:	a9057bf7 	stp	x23, x30, [sp, #80]
 40273ac:	f9455001 	ldr	x1, [x0, #2720]
 40273b0:	f90017e1 	str	x1, [sp, #40]
 40273b4:	d2800001 	mov	x1, #0x0                   	// #0
 40273b8:	910023e0 	add	x0, sp, #0x8
 40273bc:	aa0303e1 	mov	x1, x3
 40273c0:	94000285 	bl	4027dd4 <memset_s>
 40273c4:	350005e0 	cbnz	w0, 4027480 <send_board_type_to_uart+0xf4>
 40273c8:	52800013 	mov	w19, #0x0                   	// #0
 40273cc:	52800156 	mov	w22, #0xa                   	// #10
 40273d0:	528001b7 	mov	w23, #0xd                   	// #13
 40273d4:	97fffbed 	bl	4026388 <timer_get_divider>
 40273d8:	1b007ed4 	mul	w20, w22, w0
 40273dc:	94000252 	bl	4027d24 <timer_start>
 40273e0:	52a22080 	mov	w0, #0x11040000            	// #285474816
 40273e4:	94000081 	bl	40275e8 <serial_tstc>
 40273e8:	34000460 	cbz	w0, 4027474 <send_board_type_to_uart+0xe8>
 40273ec:	91001fe1 	add	x1, sp, #0x7
 40273f0:	52a22080 	mov	w0, #0x11040000            	// #285474816
 40273f4:	94000083 	bl	4027600 <serial_getc>
 40273f8:	39401fe0 	ldrb	w0, [sp, #7]
 40273fc:	34000513 	cbz	w19, 402749c <send_board_type_to_uart+0x110>
 4027400:	7100067f 	cmp	w19, #0x1
 4027404:	54000540 	b.eq	40274ac <send_board_type_to_uart+0x120>  // b.none
 4027408:	71000a7f 	cmp	w19, #0x2
 402740c:	54000560 	b.eq	40274b8 <send_board_type_to_uart+0x12c>  // b.none
 4027410:	35000053 	cbnz	w19, 4027418 <send_board_type_to_uart+0x8c>
 4027414:	79001bf7 	strh	w23, [sp, #12]
 4027418:	79401be2 	ldrh	w2, [sp, #12]
 402741c:	51000841 	sub	w1, w2, #0x2
 4027420:	6b01027f 	cmp	w19, w1
 4027424:	54000548 	b.hi	40274cc <send_board_type_to_uart+0x140>  // b.pmore
 4027428:	794017e1 	ldrh	w1, [sp, #10]
 402742c:	97fffb53 	bl	4026178 <cal_crc_perbyte>
 4027430:	790017e0 	strh	w0, [sp, #10]
 4027434:	79401be0 	ldrh	w0, [sp, #12]
 4027438:	6b13001f 	cmp	w0, w19
 402743c:	54000621 	b.ne	4027500 <send_board_type_to_uart+0x174>  // b.any
 4027440:	d2800013 	mov	x19, #0x0                   	// #0
 4027444:	910063f4 	add	x20, sp, #0x18
 4027448:	aa1403e1 	mov	x1, x20
 402744c:	2a1503e0 	mov	w0, w21
 4027450:	52800162 	mov	w2, #0xb                   	// #11
 4027454:	97fff146 	bl	402396c <build_board_type_frame>
 4027458:	38736a81 	ldrb	w1, [x20, x19]
 402745c:	52a22080 	mov	w0, #0x11040000            	// #285474816
 4027460:	91000673 	add	x19, x19, #0x1
 4027464:	9400002f 	bl	4027520 <serial_putc>
 4027468:	f1002e7f 	cmp	x19, #0xb
 402746c:	54ffff61 	b.ne	4027458 <send_board_type_to_uart+0xcc>  // b.any
 4027470:	14000004 	b	4027480 <send_board_type_to_uart+0xf4>
 4027474:	94000230 	bl	4027d34 <timer_get_val>
 4027478:	eb14001f 	cmp	x0, x20
 402747c:	54fffb23 	b.cc	40273e0 <send_board_type_to_uart+0x54>  // b.lo, b.ul, b.last
 4027480:	d0ffffc0 	adrp	x0, 4021000 <hash_verify_buf-0xa80>
 4027484:	f94017e1 	ldr	x1, [sp, #40]
 4027488:	f9455002 	ldr	x2, [x0, #2720]
 402748c:	eb020021 	subs	x1, x1, x2
 4027490:	d2800002 	mov	x2, #0x0                   	// #0
 4027494:	540003a0 	b.eq	4027508 <send_board_type_to_uart+0x17c>  // b.none
 4027498:	97fff335 	bl	402416c <__stack_chk_fail>
 402749c:	7103381f 	cmp	w0, #0xce
 40274a0:	54fffba0 	b.eq	4027414 <send_board_type_to_uart+0x88>  // b.none
 40274a4:	52800013 	mov	w19, #0x0                   	// #0
 40274a8:	17ffffcb 	b	40273d4 <send_board_type_to_uart+0x48>
 40274ac:	39003be0 	strb	w0, [sp, #14]
 40274b0:	34fffb40 	cbz	w0, 4027418 <send_board_type_to_uart+0x8c>
 40274b4:	17fffffc 	b	40274a4 <send_board_type_to_uart+0x118>
 40274b8:	39403be1 	ldrb	w1, [sp, #14]
 40274bc:	2a2103e1 	mvn	w1, w1
 40274c0:	6b21001f 	cmp	w0, w1, uxtb
 40274c4:	54fffaa0 	b.eq	4027418 <send_board_type_to_uart+0x8c>  // b.none
 40274c8:	17fffff7 	b	40274a4 <send_board_type_to_uart+0x118>
 40274cc:	4b130041 	sub	w1, w2, w19
 40274d0:	531d7021 	lsl	w1, w1, #3
 40274d4:	1ac12001 	lsl	w1, w0, w1
 40274d8:	794013e0 	ldrh	w0, [sp, #8]
 40274dc:	2a000021 	orr	w1, w1, w0
 40274e0:	12003c21 	and	w1, w1, #0xffff
 40274e4:	790013e1 	strh	w1, [sp, #8]
 40274e8:	6b02027f 	cmp	w19, w2
 40274ec:	540000a1 	b.ne	4027500 <send_board_type_to_uart+0x174>  // b.any
 40274f0:	794017e0 	ldrh	w0, [sp, #10]
 40274f4:	6b01001f 	cmp	w0, w1
 40274f8:	54fffa40 	b.eq	4027440 <send_board_type_to_uart+0xb4>  // b.none
 40274fc:	17ffffea 	b	40274a4 <send_board_type_to_uart+0x118>
 4027500:	11000673 	add	w19, w19, #0x1
 4027504:	17ffffb4 	b	40273d4 <send_board_type_to_uart+0x48>
 4027508:	528014a0 	mov	w0, #0xa5                  	// #165
 402750c:	a94353f3 	ldp	x19, x20, [sp, #48]
 4027510:	a9445bf5 	ldp	x21, x22, [sp, #64]
 4027514:	a9457bf7 	ldp	x23, x30, [sp, #80]
 4027518:	910183ff 	add	sp, sp, #0x60
 402751c:	d65f03c0 	ret

0000000004027520 <serial_putc>:
 4027520:	a9be53f3 	stp	x19, x20, [sp, #-32]!
 4027524:	13001c34 	sxtb	w20, w1
 4027528:	2a0003f3 	mov	w19, w0
 402752c:	f9000bfe 	str	x30, [sp, #16]
 4027530:	97fffbc5 	bl	4026444 <is_sec_dbg_lv_enable>
 4027534:	5292cb41 	mov	w1, #0x965a                	// #38490
 4027538:	72a794a1 	movk	w1, #0x3ca5, lsl #16
 402753c:	6b01001f 	cmp	w0, w1
 4027540:	54000201 	b.ne	4027580 <serial_putc+0x60>  // b.any
 4027544:	52a22080 	mov	w0, #0x11040000            	// #285474816
 4027548:	6b00027f 	cmp	w19, w0
 402754c:	540001a1 	b.ne	4027580 <serial_putc+0x60>  // b.any
 4027550:	71002a9f 	cmp	w20, #0xa
 4027554:	54000081 	b.ne	4027564 <serial_putc+0x44>  // b.any
 4027558:	2a1303e0 	mov	w0, w19
 402755c:	528001a1 	mov	w1, #0xd                   	// #13
 4027560:	940001d1 	bl	4027ca4 <pl011_putc>
 4027564:	52a22080 	mov	w0, #0x11040000            	// #285474816
 4027568:	2a1403e1 	mov	w1, w20
 402756c:	940001ce 	bl	4027ca4 <pl011_putc>
 4027570:	528014a0 	mov	w0, #0xa5                  	// #165
 4027574:	f9400bfe 	ldr	x30, [sp, #16]
 4027578:	a8c253f3 	ldp	x19, x20, [sp], #32
 402757c:	d65f03c0 	ret
 4027580:	52800b40 	mov	w0, #0x5a                  	// #90
 4027584:	17fffffc 	b	4027574 <serial_putc+0x54>

0000000004027588 <serial_puts>:
 4027588:	a9be53f3 	stp	x19, x20, [sp, #-32]!
 402758c:	aa0103f3 	mov	x19, x1
 4027590:	2a0003f4 	mov	w20, w0
 4027594:	f9000bfe 	str	x30, [sp, #16]
 4027598:	97fffbab 	bl	4026444 <is_sec_dbg_lv_enable>
 402759c:	5292cb41 	mov	w1, #0x965a                	// #38490
 40275a0:	72a794a1 	movk	w1, #0x3ca5, lsl #16
 40275a4:	6b01001f 	cmp	w0, w1
 40275a8:	540000a1 	b.ne	40275bc <serial_puts+0x34>  // b.any
 40275ac:	52a22080 	mov	w0, #0x11040000            	// #285474816
 40275b0:	6b00029f 	cmp	w20, w0
 40275b4:	54000041 	b.ne	40275bc <serial_puts+0x34>  // b.any
 40275b8:	b50000d3 	cbnz	x19, 40275d0 <serial_puts+0x48>
 40275bc:	52800b40 	mov	w0, #0x5a                  	// #90
 40275c0:	14000007 	b	40275dc <serial_puts+0x54>
 40275c4:	91000673 	add	x19, x19, #0x1
 40275c8:	52a22080 	mov	w0, #0x11040000            	// #285474816
 40275cc:	97ffffd5 	bl	4027520 <serial_putc>
 40275d0:	39c00261 	ldrsb	w1, [x19]
 40275d4:	35ffff81 	cbnz	w1, 40275c4 <serial_puts+0x3c>
 40275d8:	528014a0 	mov	w0, #0xa5                  	// #165
 40275dc:	f9400bfe 	ldr	x30, [sp, #16]
 40275e0:	a8c253f3 	ldp	x19, x20, [sp], #32
 40275e4:	d65f03c0 	ret

00000000040275e8 <serial_tstc>:
 40275e8:	52a22081 	mov	w1, #0x11040000            	// #285474816
 40275ec:	6b01001f 	cmp	w0, w1
 40275f0:	54000041 	b.ne	40275f8 <serial_tstc+0x10>  // b.any
 40275f4:	140001b4 	b	4027cc4 <pl011_tstc>
 40275f8:	12800000 	mov	w0, #0xffffffff            	// #-1
 40275fc:	d65f03c0 	ret

0000000004027600 <serial_getc>:
 4027600:	a9be53f3 	stp	x19, x20, [sp, #-32]!
 4027604:	aa0103f3 	mov	x19, x1
 4027608:	52a22081 	mov	w1, #0x11040000            	// #285474816
 402760c:	f9000bfe 	str	x30, [sp, #16]
 4027610:	6b01001f 	cmp	w0, w1
 4027614:	540000a0 	b.eq	4027628 <serial_getc+0x28>  // b.none
 4027618:	52800b40 	mov	w0, #0x5a                  	// #90
 402761c:	f9400bfe 	ldr	x30, [sp, #16]
 4027620:	a8c253f3 	ldp	x19, x20, [sp], #32
 4027624:	d65f03c0 	ret
 4027628:	b4ffff93 	cbz	x19, 4027618 <serial_getc+0x18>
 402762c:	2a0003f4 	mov	w20, w0
 4027630:	940001a5 	bl	4027cc4 <pl011_tstc>
 4027634:	34ffff20 	cbz	w0, 4027618 <serial_getc+0x18>
 4027638:	2a1403e0 	mov	w0, w20
 402763c:	9400019e 	bl	4027cb4 <pl011_getc>
 4027640:	39000260 	strb	w0, [x19]
 4027644:	528014a0 	mov	w0, #0xa5                  	// #165
 4027648:	17fffff5 	b	402761c <serial_getc+0x1c>

000000000402764c <serial_put_hex>:
 402764c:	a9be53f3 	stp	x19, x20, [sp, #-32]!
 4027650:	2a0003f4 	mov	w20, w0
 4027654:	f9000bfe 	str	x30, [sp, #16]
 4027658:	97fffb7b 	bl	4026444 <is_sec_dbg_lv_enable>
 402765c:	5292cb41 	mov	w1, #0x965a                	// #38490
 4027660:	72a794a1 	movk	w1, #0x3ca5, lsl #16
 4027664:	6b01001f 	cmp	w0, w1
 4027668:	540001a1 	b.ne	402769c <serial_put_hex+0x50>  // b.any
 402766c:	52800393 	mov	w19, #0x1c                  	// #28
 4027670:	1ad32682 	lsr	w2, w20, w19
 4027674:	12000c42 	and	w2, w2, #0xf
 4027678:	7100245f 	cmp	w2, #0x9
 402767c:	1100c040 	add	w0, w2, #0x30
 4027680:	1100dc41 	add	w1, w2, #0x37
 4027684:	51001273 	sub	w19, w19, #0x4
 4027688:	1a808021 	csel	w1, w1, w0, hi  // hi = pmore
 402768c:	52a22080 	mov	w0, #0x11040000            	// #285474816
 4027690:	97ffffa4 	bl	4027520 <serial_putc>
 4027694:	3100127f 	cmn	w19, #0x4
 4027698:	54fffec1 	b.ne	4027670 <serial_put_hex+0x24>  // b.any
 402769c:	f9400bfe 	ldr	x30, [sp, #16]
 40276a0:	a8c253f3 	ldp	x19, x20, [sp], #32
 40276a4:	d65f03c0 	ret

00000000040276a8 <serial_put_dec>:
 40276a8:	a9bd53f3 	stp	x19, x20, [sp, #-48]!
 40276ac:	2a0003f3 	mov	w19, w0
 40276b0:	a9015bf5 	stp	x21, x22, [sp, #16]
 40276b4:	f90013fe 	str	x30, [sp, #32]
 40276b8:	97fffb63 	bl	4026444 <is_sec_dbg_lv_enable>
 40276bc:	5292cb41 	mov	w1, #0x965a                	// #38490
 40276c0:	72a794a1 	movk	w1, #0x3ca5, lsl #16
 40276c4:	6b01001f 	cmp	w0, w1
 40276c8:	54000201 	b.ne	4027708 <serial_put_dec+0x60>  // b.any
 40276cc:	36f80273 	tbz	w19, #31, 4027718 <serial_put_dec+0x70>
 40276d0:	4b1303f5 	neg	w21, w19
 40276d4:	528005a1 	mov	w1, #0x2d                  	// #45
 40276d8:	52a22080 	mov	w0, #0x11040000            	// #285474816
 40276dc:	97ffff91 	bl	4027520 <serial_putc>
 40276e0:	52800034 	mov	w20, #0x1                   	// #1
 40276e4:	52800156 	mov	w22, #0xa                   	// #10
 40276e8:	1ad40aa1 	udiv	w1, w21, w20
 40276ec:	52a22080 	mov	w0, #0x11040000            	// #285474816
 40276f0:	1b14d421 	msub	w1, w1, w20, w21
 40276f4:	1b167e94 	mul	w20, w20, w22
 40276f8:	1100c021 	add	w1, w1, #0x30
 40276fc:	97ffff89 	bl	4027520 <serial_putc>
 4027700:	6b13029f 	cmp	w20, w19
 4027704:	54ffff23 	b.cc	40276e8 <serial_put_dec+0x40>  // b.lo, b.ul, b.last
 4027708:	a9415bf5 	ldp	x21, x22, [sp, #16]
 402770c:	f94013fe 	ldr	x30, [sp, #32]
 4027710:	a8c353f3 	ldp	x19, x20, [sp], #48
 4027714:	d65f03c0 	ret
 4027718:	2a1303f5 	mov	w21, w19
 402771c:	17fffff1 	b	40276e0 <serial_put_dec+0x38>

0000000004027720 <debug_puts>:
 4027720:	a9be53f3 	stp	x19, x20, [sp, #-32]!
 4027724:	2a0103f4 	mov	w20, w1
 4027728:	aa0003f3 	mov	x19, x0
 402772c:	a9017bf5 	stp	x21, x30, [sp, #16]
 4027730:	97fffb45 	bl	4026444 <is_sec_dbg_lv_enable>
 4027734:	5292cb41 	mov	w1, #0x965a                	// #38490
 4027738:	72a794a1 	movk	w1, #0x3ca5, lsl #16
 402773c:	6b01001f 	cmp	w0, w1
 4027740:	540005a1 	b.ne	40277f4 <debug_puts+0xd4>  // b.any
 4027744:	f0000035 	adrp	x21, 402e000 <ddrtrn_hal_set_dq_type+0xc>
 4027748:	913ec2b5 	add	x21, x21, #0xfb0
 402774c:	39400261 	ldrb	w1, [x19]
 4027750:	35000121 	cbnz	w1, 4027774 <debug_puts+0x54>
 4027754:	528001a1 	mov	w1, #0xd                   	// #13
 4027758:	52800000 	mov	w0, #0x0                   	// #0
 402775c:	97ffff71 	bl	4027520 <serial_putc>
 4027760:	a9417bf5 	ldp	x21, x30, [sp, #16]
 4027764:	52800141 	mov	w1, #0xa                   	// #10
 4027768:	a8c253f3 	ldp	x19, x20, [sp], #32
 402776c:	52800000 	mov	w0, #0x0                   	// #0
 4027770:	17ffff6c 	b	4027520 <serial_putc>
 4027774:	7100943f 	cmp	w1, #0x25
 4027778:	540000a0 	b.eq	402778c <debug_puts+0x6c>  // b.none
 402777c:	52a22080 	mov	w0, #0x11040000            	// #285474816
 4027780:	97ffff68 	bl	4027520 <serial_putc>
 4027784:	91000673 	add	x19, x19, #0x1
 4027788:	17fffff1 	b	402774c <debug_puts+0x2c>
 402778c:	39400660 	ldrb	w0, [x19, #1]
 4027790:	71008c1f 	cmp	w0, #0x23
 4027794:	540001c0 	b.eq	40277cc <debug_puts+0xac>  // b.none
 4027798:	91000673 	add	x19, x19, #0x1
 402779c:	39400260 	ldrb	w0, [x19]
 40277a0:	7101901f 	cmp	w0, #0x64
 40277a4:	54000220 	b.eq	40277e8 <debug_puts+0xc8>  // b.none
 40277a8:	540001c8 	b.hi	40277e0 <debug_puts+0xc0>  // b.pmore
 40277ac:	7101101f 	cmp	w0, #0x44
 40277b0:	540001c0 	b.eq	40277e8 <debug_puts+0xc8>  // b.none
 40277b4:	7101601f 	cmp	w0, #0x58
 40277b8:	54fffe61 	b.ne	4027784 <debug_puts+0x64>  // b.any
 40277bc:	91000673 	add	x19, x19, #0x1
 40277c0:	2a1403e0 	mov	w0, w20
 40277c4:	97ffffa2 	bl	402764c <serial_put_hex>
 40277c8:	17ffffef 	b	4027784 <debug_puts+0x64>
 40277cc:	aa1503e1 	mov	x1, x21
 40277d0:	52a22080 	mov	w0, #0x11040000            	// #285474816
 40277d4:	91000a73 	add	x19, x19, #0x2
 40277d8:	97ffff6c 	bl	4027588 <serial_puts>
 40277dc:	17fffff0 	b	402779c <debug_puts+0x7c>
 40277e0:	7101e01f 	cmp	w0, #0x78
 40277e4:	17fffff5 	b	40277b8 <debug_puts+0x98>
 40277e8:	2a1403e0 	mov	w0, w20
 40277ec:	97ffffaf 	bl	40276a8 <serial_put_dec>
 40277f0:	17ffffe5 	b	4027784 <debug_puts+0x64>
 40277f4:	a9417bf5 	ldp	x21, x30, [sp, #16]
 40277f8:	a8c253f3 	ldp	x19, x20, [sp], #32
 40277fc:	d65f03c0 	ret

0000000004027800 <wait_uart_tx_busy_state>:
 4027800:	52909000 	mov	w0, #0x8480                	// #33920
 4027804:	d2800301 	mov	x1, #0x18                  	// #24
 4027808:	72a003c0 	movk	w0, #0x1e, lsl #16
 402780c:	f2a22081 	movk	x1, #0x1104, lsl #16
 4027810:	b9400022 	ldr	w2, [x1]
 4027814:	361800a2 	tbz	w2, #3, 4027828 <wait_uart_tx_busy_state+0x28>
 4027818:	71000400 	subs	w0, w0, #0x1
 402781c:	54ffffa1 	b.ne	4027810 <wait_uart_tx_busy_state+0x10>  // b.any
 4027820:	52800b40 	mov	w0, #0x5a                  	// #90
 4027824:	d65f03c0 	ret
 4027828:	528014a0 	mov	w0, #0xa5                  	// #165
 402782c:	17fffffe 	b	4027824 <wait_uart_tx_busy_state+0x24>

0000000004027830 <tzasc_sec_config_read_back>:
 4027830:	12001c00 	and	w0, w0, #0xff
 4027834:	71003c1f 	cmp	w0, #0xf
 4027838:	54000328 	b.hi	402789c <tzasc_sec_config_read_back+0x6c>  // b.pmore
 402783c:	52882203 	mov	w3, #0x4110                	// #16656
 4027840:	72a02223 	movk	w3, #0x111, lsl #16
 4027844:	0b030000 	add	w0, w0, w3
 4027848:	531c6c03 	lsl	w3, w0, #4
 402784c:	d37c6400 	ubfiz	x0, x0, #4, #26
 4027850:	11040063 	add	w3, w3, #0x100
 4027854:	93407c63 	sxtw	x3, w3
 4027858:	b9400004 	ldr	w4, [x0]
 402785c:	b9400060 	ldr	w0, [x3]
 4027860:	92405483 	and	x3, x4, #0x3fffff
 4027864:	d3405c00 	ubfx	x0, x0, #0, #24
 4027868:	eb41307f 	cmp	x3, x1, lsr #12
 402786c:	54000081 	b.ne	402787c <tzasc_sec_config_read_back+0x4c>  // b.any
 4027870:	2a0003e0 	mov	w0, w0
 4027874:	eb42301f 	cmp	x0, x2, lsr #12
 4027878:	540000e0 	b.eq	4027894 <tzasc_sec_config_read_back+0x64>  // b.none
 402787c:	f81f0ffe 	str	x30, [sp, #-16]!
 4027880:	52800d80 	mov	w0, #0x6c                  	// #108
 4027884:	97fff1fd 	bl	4024078 <err_print>
 4027888:	52800b40 	mov	w0, #0x5a                  	// #90
 402788c:	f84107fe 	ldr	x30, [sp], #16
 4027890:	d65f03c0 	ret
 4027894:	528014a0 	mov	w0, #0xa5                  	// #165
 4027898:	d65f03c0 	ret
 402789c:	d2800000 	mov	x0, #0x0                   	// #0
 40278a0:	b9400001 	ldr	w1, [x0]
 40278a4:	b9400000 	ldr	w0, [x0]
 40278a8:	d4207d00 	brk	#0x3e8

00000000040278ac <tzasc_bypass_disable>:
 40278ac:	d2820080 	mov	x0, #0x1004                	// #4100
 40278b0:	f2a22280 	movk	x0, #0x1114, lsl #16
 40278b4:	b900001f 	str	wzr, [x0]
 40278b8:	b9400000 	ldr	w0, [x0]
 40278bc:	340000e0 	cbz	w0, 40278d8 <tzasc_bypass_disable+0x2c>
 40278c0:	f81f0ffe 	str	x30, [sp, #-16]!
 40278c4:	52800da0 	mov	w0, #0x6d                  	// #109
 40278c8:	97fff1ec 	bl	4024078 <err_print>
 40278cc:	52800b40 	mov	w0, #0x5a                  	// #90
 40278d0:	f84107fe 	ldr	x30, [sp], #16
 40278d4:	d65f03c0 	ret
 40278d8:	528014a0 	mov	w0, #0xa5                  	// #165
 40278dc:	d65f03c0 	ret

00000000040278e0 <tzasc_rgn_enable>:
 40278e0:	12001c00 	and	w0, w0, #0xff
 40278e4:	71003c1f 	cmp	w0, #0xf
 40278e8:	54000108 	b.hi	4027908 <tzasc_rgn_enable+0x28>  // b.pmore
 40278ec:	52882201 	mov	w1, #0x4110                	// #16656
 40278f0:	72a02221 	movk	w1, #0x111, lsl #16
 40278f4:	0b010000 	add	w0, w0, w1
 40278f8:	d37c6400 	ubfiz	x0, x0, #4, #26
 40278fc:	b9400001 	ldr	w1, [x0]
 4027900:	32010021 	orr	w1, w1, #0x80000000
 4027904:	b9000001 	str	w1, [x0]
 4027908:	d65f03c0 	ret

000000000402790c <tzasc_set_rgn_map>:
 402790c:	12001c00 	and	w0, w0, #0xff
 4027910:	71003c1f 	cmp	w0, #0xf
 4027914:	54000208 	b.hi	4027954 <tzasc_set_rgn_map+0x48>  // b.pmore
 4027918:	52882203 	mov	w3, #0x4110                	// #16656
 402791c:	d34c8421 	ubfx	x1, x1, #12, #22
 4027920:	72a02223 	movk	w3, #0x111, lsl #16
 4027924:	0b030000 	add	w0, w0, w3
 4027928:	d34c8c42 	ubfx	x2, x2, #12, #24
 402792c:	531c6c03 	lsl	w3, w0, #4
 4027930:	d37c6400 	ubfiz	x0, x0, #4, #26
 4027934:	11040063 	add	w3, w3, #0x100
 4027938:	b9400004 	ldr	w4, [x0]
 402793c:	93407c63 	sxtw	x3, w3
 4027940:	33005424 	bfxil	w4, w1, #0, #22
 4027944:	b9000004 	str	w4, [x0]
 4027948:	b9400060 	ldr	w0, [x3]
 402794c:	33005c40 	bfxil	w0, w2, #0, #24
 4027950:	b9000060 	str	w0, [x3]
 4027954:	d65f03c0 	ret

0000000004027958 <tzasc_set_rgn_attr>:
 4027958:	12001c00 	and	w0, w0, #0xff
 402795c:	71003c1f 	cmp	w0, #0xf
 4027960:	54000108 	b.hi	4027980 <tzasc_set_rgn_attr+0x28>  // b.pmore
 4027964:	52882002 	mov	w2, #0x4100                	// #16640
 4027968:	72a02222 	movk	w2, #0x111, lsl #16
 402796c:	0b020000 	add	w0, w0, w2
 4027970:	531c6c00 	lsl	w0, w0, #4
 4027974:	11041000 	add	w0, w0, #0x104
 4027978:	93407c00 	sxtw	x0, w0
 402797c:	b9000001 	str	w1, [x0]
 4027980:	d65f03c0 	ret

0000000004027984 <config_tzasc>:
 4027984:	aa0203e4 	mov	x4, x2
 4027988:	f81f0ffe 	str	x30, [sp, #-16]!
 402798c:	12001c05 	and	w5, w0, #0xff
 4027990:	2a0503e0 	mov	w0, w5
 4027994:	97fffff1 	bl	4027958 <tzasc_set_rgn_attr>
 4027998:	2a0503e0 	mov	w0, w5
 402799c:	aa0303e2 	mov	x2, x3
 40279a0:	aa0403e1 	mov	x1, x4
 40279a4:	97ffffda 	bl	402790c <tzasc_set_rgn_map>
 40279a8:	f84107fe 	ldr	x30, [sp], #16
 40279ac:	2a0503e0 	mov	w0, w5
 40279b0:	17ffffcc 	b	40278e0 <tzasc_rgn_enable>

00000000040279b4 <uapi_drv_cipher_init>:
 40279b4:	d28a0000 	mov	x0, #0x5000                	// #20480
 40279b8:	b9400000 	ldr	w0, [x0]
 40279bc:	aa0003f0 	mov	x16, x0
 40279c0:	d61f0200 	br	x16

00000000040279c4 <uapi_drv_cipher_deinit>:
 40279c4:	d28a0080 	mov	x0, #0x5004                	// #20484
 40279c8:	b9400000 	ldr	w0, [x0]
 40279cc:	aa0003f0 	mov	x16, x0
 40279d0:	d61f0200 	br	x16

00000000040279d4 <uapi_drv_cipher_create>:
 40279d4:	d28a0103 	mov	x3, #0x5008                	// #20488
 40279d8:	b9400063 	ldr	w3, [x3]
 40279dc:	aa0303f0 	mov	x16, x3
 40279e0:	d61f0200 	br	x16

00000000040279e4 <uapi_drv_cipher_destroy>:
 40279e4:	d28a0181 	mov	x1, #0x500c                	// #20492
 40279e8:	b9400021 	ldr	w1, [x1]
 40279ec:	aa0103f0 	mov	x16, x1
 40279f0:	d61f0200 	br	x16

00000000040279f4 <uapi_drv_cipher_dma_copy>:
 40279f4:	d28a0204 	mov	x4, #0x5010                	// #20496
 40279f8:	b9400084 	ldr	w4, [x4]
 40279fc:	aa0403f0 	mov	x16, x4
 4027a00:	d61f0200 	br	x16

0000000004027a04 <uapi_drv_cipher_set_config>:
 4027a04:	d28a0283 	mov	x3, #0x5014                	// #20500
 4027a08:	b9400063 	ldr	w3, [x3]
 4027a0c:	aa0303f0 	mov	x16, x3
 4027a10:	d61f0200 	br	x16

0000000004027a14 <uapi_drv_cipher_attach>:
 4027a14:	d28a0303 	mov	x3, #0x5018                	// #20504
 4027a18:	b9400063 	ldr	w3, [x3]
 4027a1c:	aa0303f0 	mov	x16, x3
 4027a20:	d61f0200 	br	x16

0000000004027a24 <uapi_drv_cipher_detach>:
 4027a24:	d28a0383 	mov	x3, #0x501c                	// #20508
 4027a28:	b9400063 	ldr	w3, [x3]
 4027a2c:	aa0303f0 	mov	x16, x3
 4027a30:	d61f0200 	br	x16

0000000004027a34 <uapi_drv_cipher_decrypt>:
 4027a34:	d28a0406 	mov	x6, #0x5020                	// #20512
 4027a38:	b94000c6 	ldr	w6, [x6]
 4027a3c:	aa0603f0 	mov	x16, x6
 4027a40:	d61f0200 	br	x16

0000000004027a44 <uapi_drv_cipher_hash_init>:
 4027a44:	d28a0483 	mov	x3, #0x5024                	// #20516
 4027a48:	b9400063 	ldr	w3, [x3]
 4027a4c:	aa0303f0 	mov	x16, x3
 4027a50:	d61f0200 	br	x16

0000000004027a54 <uapi_drv_cipher_hash_update>:
 4027a54:	d28a0505 	mov	x5, #0x5028                	// #20520
 4027a58:	b94000a5 	ldr	w5, [x5]
 4027a5c:	aa0503f0 	mov	x16, x5
 4027a60:	d61f0200 	br	x16

0000000004027a64 <uapi_drv_cipher_hash_final>:
 4027a64:	d28a0584 	mov	x4, #0x502c                	// #20524
 4027a68:	b9400084 	ldr	w4, [x4]
 4027a6c:	aa0403f0 	mov	x16, x4
 4027a70:	d61f0200 	br	x16

0000000004027a74 <uapi_drv_cipher_trng_get_random>:
 4027a74:	d28a0601 	mov	x1, #0x5030                	// #20528
 4027a78:	b9400021 	ldr	w1, [x1]
 4027a7c:	aa0103f0 	mov	x16, x1
 4027a80:	d61f0200 	br	x16

0000000004027a84 <uapi_drv_cipher_register_cipher_wait_func>:
 4027a84:	d28a0684 	mov	x4, #0x5034                	// #20532
 4027a88:	b9400084 	ldr	w4, [x4]
 4027a8c:	aa0403f0 	mov	x16, x4
 4027a90:	d61f0200 	br	x16

0000000004027a94 <uapi_drv_keyslot_init>:
 4027a94:	d28a0700 	mov	x0, #0x5038                	// #20536
 4027a98:	b9400000 	ldr	w0, [x0]
 4027a9c:	aa0003f0 	mov	x16, x0
 4027aa0:	d61f0200 	br	x16

0000000004027aa4 <uapi_drv_keyslot_deinit>:
 4027aa4:	d28a0780 	mov	x0, #0x503c                	// #20540
 4027aa8:	b9400000 	ldr	w0, [x0]
 4027aac:	aa0003f0 	mov	x16, x0
 4027ab0:	d61f0200 	br	x16

0000000004027ab4 <uapi_drv_keyslot_create>:
 4027ab4:	d28a0802 	mov	x2, #0x5040                	// #20544
 4027ab8:	b9400042 	ldr	w2, [x2]
 4027abc:	aa0203f0 	mov	x16, x2
 4027ac0:	d61f0200 	br	x16

0000000004027ac4 <uapi_drv_keyslot_destroy>:
 4027ac4:	d28a0881 	mov	x1, #0x5044                	// #20548
 4027ac8:	b9400021 	ldr	w1, [x1]
 4027acc:	aa0103f0 	mov	x16, x1
 4027ad0:	d61f0200 	br	x16

0000000004027ad4 <uapi_drv_klad_create>:
 4027ad4:	d28a0901 	mov	x1, #0x5048                	// #20552
 4027ad8:	b9400021 	ldr	w1, [x1]
 4027adc:	aa0103f0 	mov	x16, x1
 4027ae0:	d61f0200 	br	x16

0000000004027ae4 <uapi_drv_klad_destroy>:
 4027ae4:	d28a0981 	mov	x1, #0x504c                	// #20556
 4027ae8:	b9400021 	ldr	w1, [x1]
 4027aec:	aa0103f0 	mov	x16, x1
 4027af0:	d61f0200 	br	x16

0000000004027af4 <uapi_drv_klad_attach>:
 4027af4:	d28a0a04 	mov	x4, #0x5050                	// #20560
 4027af8:	b9400084 	ldr	w4, [x4]
 4027afc:	aa0403f0 	mov	x16, x4
 4027b00:	d61f0200 	br	x16

0000000004027b04 <uapi_drv_klad_detach>:
 4027b04:	d28a0a84 	mov	x4, #0x5054                	// #20564
 4027b08:	b9400084 	ldr	w4, [x4]
 4027b0c:	aa0403f0 	mov	x16, x4
 4027b10:	d61f0200 	br	x16

0000000004027b14 <uapi_drv_klad_set_attr>:
 4027b14:	d28a0b03 	mov	x3, #0x5058                	// #20568
 4027b18:	b9400063 	ldr	w3, [x3]
 4027b1c:	aa0303f0 	mov	x16, x3
 4027b20:	d61f0200 	br	x16

0000000004027b24 <uapi_drv_klad_set_session_key>:
 4027b24:	d28a0b83 	mov	x3, #0x505c                	// #20572
 4027b28:	b9400063 	ldr	w3, [x3]
 4027b2c:	aa0303f0 	mov	x16, x3
 4027b30:	d61f0200 	br	x16

0000000004027b34 <uapi_drv_klad_set_content_key>:
 4027b34:	d28a0c04 	mov	x4, #0x5060                	// #20576
 4027b38:	b9400084 	ldr	w4, [x4]
 4027b3c:	aa0403f0 	mov	x16, x4
 4027b40:	d61f0200 	br	x16

0000000004027b44 <uapi_drv_klad_set_clear_key>:
 4027b44:	d28a2183 	mov	x3, #0x510c                	// #20748
 4027b48:	b9400063 	ldr	w3, [x3]
 4027b4c:	aa0303f0 	mov	x16, x3
 4027b50:	d61f0200 	br	x16

0000000004027b54 <uapi_drv_klad_rootkey_disable>:
 4027b54:	d28a0c82 	mov	x2, #0x5064                	// #20580
 4027b58:	b9400042 	ldr	w2, [x2]
 4027b5c:	aa0203f0 	mov	x16, x2
 4027b60:	d61f0200 	br	x16

0000000004027b64 <uapi_drv_otp_read_word>:
 4027b64:	d28a0d03 	mov	x3, #0x5068                	// #20584
 4027b68:	b9400063 	ldr	w3, [x3]
 4027b6c:	aa0303f0 	mov	x16, x3
 4027b70:	d61f0200 	br	x16

0000000004027b74 <uapi_drv_otp_read_byte>:
 4027b74:	d28a0d83 	mov	x3, #0x506c                	// #20588
 4027b78:	b9400063 	ldr	w3, [x3]
 4027b7c:	aa0303f0 	mov	x16, x3
 4027b80:	d61f0200 	br	x16

0000000004027b84 <uapi_drv_otp_get_die_id>:
 4027b84:	d28a0e03 	mov	x3, #0x5070                	// #20592
 4027b88:	b9400063 	ldr	w3, [x3]
 4027b8c:	aa0303f0 	mov	x16, x3
 4027b90:	d61f0200 	br	x16

0000000004027b94 <uapi_drv_pke_init>:
 4027b94:	d28a0e80 	mov	x0, #0x5074                	// #20596
 4027b98:	b9400000 	ldr	w0, [x0]
 4027b9c:	aa0003f0 	mov	x16, x0
 4027ba0:	d61f0200 	br	x16

0000000004027ba4 <uapi_drv_pke_deinit>:
 4027ba4:	d28a0f00 	mov	x0, #0x5078                	// #20600
 4027ba8:	b9400000 	ldr	w0, [x0]
 4027bac:	aa0003f0 	mov	x16, x0
 4027bb0:	d61f0200 	br	x16

0000000004027bb4 <uapi_drv_pke_ecdsa_verify>:
 4027bb4:	d28a0f86 	mov	x6, #0x507c                	// #20604
 4027bb8:	b94000c6 	ldr	w6, [x6]
 4027bbc:	aa0603f0 	mov	x16, x6
 4027bc0:	d61f0200 	br	x16

0000000004027bc4 <uapi_drv_pke_sm2_dsa_hash>:
 4027bc4:	d28a1005 	mov	x5, #0x5080                	// #20608
 4027bc8:	b94000a5 	ldr	w5, [x5]
 4027bcc:	aa0503f0 	mov	x16, x5
 4027bd0:	d61f0200 	br	x16

0000000004027bd4 <uapi_drv_register_func>:
 4027bd4:	d28a1081 	mov	x1, #0x5084                	// #20612
 4027bd8:	b9400021 	ldr	w1, [x1]
 4027bdc:	aa0103f0 	mov	x16, x1
 4027be0:	d61f0200 	br	x16

0000000004027be4 <mmc_init>:
 4027be4:	d28a1100 	mov	x0, #0x5088                	// #20616
 4027be8:	b9400000 	ldr	w0, [x0]
 4027bec:	aa0003f0 	mov	x16, x0
 4027bf0:	d61f0200 	br	x16

0000000004027bf4 <mmc_read>:
 4027bf4:	d28a1184 	mov	x4, #0x508c                	// #20620
 4027bf8:	b9400084 	ldr	w4, [x4]
 4027bfc:	aa0403f0 	mov	x16, x4
 4027c00:	d61f0200 	br	x16

0000000004027c04 <is_bootmode>:
 4027c04:	d28a1200 	mov	x0, #0x5090                	// #20624
 4027c08:	b9400000 	ldr	w0, [x0]
 4027c0c:	aa0003f0 	mov	x16, x0
 4027c10:	d61f0200 	br	x16

0000000004027c14 <mmc_get_cur_mode>:
 4027c14:	d28a1280 	mov	x0, #0x5094                	// #20628
 4027c18:	b9400000 	ldr	w0, [x0]
 4027c1c:	aa0003f0 	mov	x16, x0
 4027c20:	d61f0200 	br	x16

0000000004027c24 <mmc_set_bootup_mode>:
 4027c24:	d28a1301 	mov	x1, #0x5098                	// #20632
 4027c28:	b9400021 	ldr	w1, [x1]
 4027c2c:	aa0103f0 	mov	x16, x1
 4027c30:	d61f0200 	br	x16

0000000004027c34 <copy_from_sdio>:
 4027c34:	d28a1382 	mov	x2, #0x509c                	// #20636
 4027c38:	b9400042 	ldr	w2, [x2]
 4027c3c:	aa0203f0 	mov	x16, x2
 4027c40:	d61f0200 	br	x16

0000000004027c44 <set_sdio_pos>:
 4027c44:	d28a1401 	mov	x1, #0x50a0                	// #20640
 4027c48:	b9400021 	ldr	w1, [x1]
 4027c4c:	aa0103f0 	mov	x16, x1
 4027c50:	d61f0200 	br	x16

0000000004027c54 <enable_sdio_dma>:
 4027c54:	d28a1480 	mov	x0, #0x50a4                	// #20644
 4027c58:	b9400000 	ldr	w0, [x0]
 4027c5c:	aa0003f0 	mov	x16, x0
 4027c60:	d61f0200 	br	x16

0000000004027c64 <self_usb_check>:
 4027c64:	d28a1500 	mov	x0, #0x50a8                	// #20648
 4027c68:	b9400000 	ldr	w0, [x0]
 4027c6c:	aa0003f0 	mov	x16, x0
 4027c70:	d61f0200 	br	x16

0000000004027c74 <copy_from_usb>:
 4027c74:	d28a1583 	mov	x3, #0x50ac                	// #20652
 4027c78:	b9400063 	ldr	w3, [x3]
 4027c7c:	aa0303f0 	mov	x16, x3
 4027c80:	d61f0200 	br	x16

0000000004027c84 <usb3_driver_init>:
 4027c84:	d28a1600 	mov	x0, #0x50b0                	// #20656
 4027c88:	b9400000 	ldr	w0, [x0]
 4027c8c:	aa0003f0 	mov	x16, x0
 4027c90:	d61f0200 	br	x16

0000000004027c94 <send_to_usb>:
 4027c94:	d28a1682 	mov	x2, #0x50b4                	// #20660
 4027c98:	b9400042 	ldr	w2, [x2]
 4027c9c:	aa0203f0 	mov	x16, x2
 4027ca0:	d61f0200 	br	x16

0000000004027ca4 <pl011_putc>:
 4027ca4:	d28a1702 	mov	x2, #0x50b8                	// #20664
 4027ca8:	b9400042 	ldr	w2, [x2]
 4027cac:	aa0203f0 	mov	x16, x2
 4027cb0:	d61f0200 	br	x16

0000000004027cb4 <pl011_getc>:
 4027cb4:	d28a1781 	mov	x1, #0x50bc                	// #20668
 4027cb8:	b9400021 	ldr	w1, [x1]
 4027cbc:	aa0103f0 	mov	x16, x1
 4027cc0:	d61f0200 	br	x16

0000000004027cc4 <pl011_tstc>:
 4027cc4:	d28a1801 	mov	x1, #0x50c0                	// #20672
 4027cc8:	b9400021 	ldr	w1, [x1]
 4027ccc:	aa0103f0 	mov	x16, x1
 4027cd0:	d61f0200 	br	x16

0000000004027cd4 <serial_init>:
 4027cd4:	d28a1882 	mov	x2, #0x50c4                	// #20676
 4027cd8:	b9400042 	ldr	w2, [x2]
 4027cdc:	aa0203f0 	mov	x16, x2
 4027ce0:	d61f0200 	br	x16

0000000004027ce4 <log_serial_puts>:
 4027ce4:	d28a1901 	mov	x1, #0x50c8                	// #20680
 4027ce8:	b9400021 	ldr	w1, [x1]
 4027cec:	aa0103f0 	mov	x16, x1
 4027cf0:	d61f0200 	br	x16

0000000004027cf4 <copy_from_uart>:
 4027cf4:	d28a1983 	mov	x3, #0x50cc                	// #20684
 4027cf8:	b9400063 	ldr	w3, [x3]
 4027cfc:	aa0303f0 	mov	x16, x3
 4027d00:	d61f0200 	br	x16

0000000004027d04 <timer_init>:
 4027d04:	d28a1a00 	mov	x0, #0x50d0                	// #20688
 4027d08:	b9400000 	ldr	w0, [x0]
 4027d0c:	aa0003f0 	mov	x16, x0
 4027d10:	d61f0200 	br	x16

0000000004027d14 <timer_deinit>:
 4027d14:	d28a1a80 	mov	x0, #0x50d4                	// #20692
 4027d18:	b9400000 	ldr	w0, [x0]
 4027d1c:	aa0003f0 	mov	x16, x0
 4027d20:	d61f0200 	br	x16

0000000004027d24 <timer_start>:
 4027d24:	d28a1b00 	mov	x0, #0x50d8                	// #20696
 4027d28:	b9400000 	ldr	w0, [x0]
 4027d2c:	aa0003f0 	mov	x16, x0
 4027d30:	d61f0200 	br	x16

0000000004027d34 <timer_get_val>:
 4027d34:	d28a1b80 	mov	x0, #0x50dc                	// #20700
 4027d38:	b9400000 	ldr	w0, [x0]
 4027d3c:	aa0003f0 	mov	x16, x0
 4027d40:	d61f0200 	br	x16

0000000004027d44 <udelay>:
 4027d44:	d28a1c01 	mov	x1, #0x50e0                	// #20704
 4027d48:	b9400021 	ldr	w1, [x1]
 4027d4c:	aa0103f0 	mov	x16, x1
 4027d50:	d61f0200 	br	x16

0000000004027d54 <mdelay>:
 4027d54:	d28a1c81 	mov	x1, #0x50e4                	// #20708
 4027d58:	b9400021 	ldr	w1, [x1]
 4027d5c:	aa0103f0 	mov	x16, x1
 4027d60:	d61f0200 	br	x16

0000000004027d64 <watchdog_enable>:
 4027d64:	d28a1d03 	mov	x3, #0x50e8                	// #20712
 4027d68:	b9400063 	ldr	w3, [x3]
 4027d6c:	aa0303f0 	mov	x16, x3
 4027d70:	d61f0200 	br	x16

0000000004027d74 <watchdog_disable>:
 4027d74:	d28a1d81 	mov	x1, #0x50ec                	// #20716
 4027d78:	b9400021 	ldr	w1, [x1]
 4027d7c:	aa0103f0 	mov	x16, x1
 4027d80:	d61f0200 	br	x16

0000000004027d84 <watchdog_feed>:
 4027d84:	d28a1e02 	mov	x2, #0x50f0                	// #20720
 4027d88:	b9400042 	ldr	w2, [x2]
 4027d8c:	aa0203f0 	mov	x16, x2
 4027d90:	d61f0200 	br	x16

0000000004027d94 <memcmp_ss>:
 4027d94:	d28a1e84 	mov	x4, #0x50f4                	// #20724
 4027d98:	b9400084 	ldr	w4, [x4]
 4027d9c:	aa0403f0 	mov	x16, x4
 4027da0:	d61f0200 	br	x16

0000000004027da4 <memcpy_ss>:
 4027da4:	d28a1f05 	mov	x5, #0x50f8                	// #20728
 4027da8:	b94000a5 	ldr	w5, [x5]
 4027dac:	aa0503f0 	mov	x16, x5
 4027db0:	d61f0200 	br	x16

0000000004027db4 <memset_ss>:
 4027db4:	d28a1f85 	mov	x5, #0x50fc                	// #20732
 4027db8:	b94000a5 	ldr	w5, [x5]
 4027dbc:	aa0503f0 	mov	x16, x5
 4027dc0:	d61f0200 	br	x16

0000000004027dc4 <memcpy_s>:
 4027dc4:	d28a2004 	mov	x4, #0x5100                	// #20736
 4027dc8:	b9400084 	ldr	w4, [x4]
 4027dcc:	aa0403f0 	mov	x16, x4
 4027dd0:	d61f0200 	br	x16

0000000004027dd4 <memset_s>:
 4027dd4:	d28a2084 	mov	x4, #0x5104                	// #20740
 4027dd8:	b9400084 	ldr	w4, [x4]
 4027ddc:	aa0403f0 	mov	x16, x4
 4027de0:	d61f0200 	br	x16

0000000004027de4 <save_cur_point_syscnt>:
 4027de4:	d28a2100 	mov	x0, #0x5108                	// #20744
 4027de8:	b9400000 	ldr	w0, [x0]
 4027dec:	aa0003f0 	mov	x16, x0
 4027df0:	d61f0200 	br	x16

0000000004027df4 <self_sdio_check>:
 4027df4:	d2914d00 	mov	x0, #0x8a68                	// #35432
 4027df8:	aa0003f0 	mov	x16, x0
 4027dfc:	d61f0200 	br	x16

0000000004027e00 <ipc_send_msg>:
 4027e00:	7100201f 	cmp	w0, #0x8
 4027e04:	540003e8 	b.hi	4027e80 <ipc_send_msg+0x80>  // b.pmore
 4027e08:	b40003c1 	cbz	x1, 4027e80 <ipc_send_msg+0x80>
 4027e0c:	b9400422 	ldr	w2, [x1, #4]
 4027e10:	7100345f 	cmp	w2, #0xd
 4027e14:	54000368 	b.hi	4027e80 <ipc_send_msg+0x80>  // b.pmore
 4027e18:	d29c0405 	mov	x5, #0xe020                	// #57376
 4027e1c:	b9400022 	ldr	w2, [x1]
 4027e20:	f2a22065 	movk	x5, #0x1103, lsl #16
 4027e24:	d29c0484 	mov	x4, #0xe024                	// #57380
 4027e28:	f2a22064 	movk	x4, #0x1103, lsl #16
 4027e2c:	b90000a2 	str	w2, [x5]
 4027e30:	b9400423 	ldr	w3, [x1, #4]
 4027e34:	b9000083 	str	w3, [x4]
 4027e38:	4a030042 	eor	w2, w2, w3
 4027e3c:	d2800023 	mov	x3, #0x1                   	// #1
 4027e40:	91000463 	add	x3, x3, #0x1
 4027e44:	b9400426 	ldr	w6, [x1, #4]
 4027e48:	51000864 	sub	w4, w3, #0x2
 4027e4c:	6b0400df 	cmp	w6, w4
 4027e50:	540000e8 	b.hi	4027e6c <ipc_send_msg+0x6c>  // b.pmore
 4027e54:	d29c0b81 	mov	x1, #0xe05c                	// #57436
 4027e58:	f2a22061 	movk	x1, #0x1103, lsl #16
 4027e5c:	b9000022 	str	w2, [x1]
 4027e60:	b81a4020 	stur	w0, [x1, #-92]
 4027e64:	52800000 	mov	w0, #0x0                   	// #0
 4027e68:	d65f03c0 	ret
 4027e6c:	d37ef464 	lsl	x4, x3, #2
 4027e70:	b8637826 	ldr	w6, [x1, x3, lsl #2]
 4027e74:	4a060042 	eor	w2, w2, w6
 4027e78:	b82468a6 	str	w6, [x5, x4]
 4027e7c:	17fffff1 	b	4027e40 <ipc_send_msg+0x40>
 4027e80:	12800000 	mov	w0, #0xffffffff            	// #-1
 4027e84:	17fffff9 	b	4027e68 <ipc_send_msg+0x68>

0000000004027e88 <ipc_recv_msg>:
 4027e88:	b4000481 	cbz	x1, 4027f18 <ipc_recv_msg+0x90>
 4027e8c:	7100201f 	cmp	w0, #0x8
 4027e90:	54000448 	b.hi	4027f18 <ipc_recv_msg+0x90>  // b.pmore
 4027e94:	34000102 	cbz	w2, 4027eb4 <ipc_recv_msg+0x2c>
 4027e98:	52800022 	mov	w2, #0x1                   	// #1
 4027e9c:	d29c0104 	mov	x4, #0xe008                	// #57352
 4027ea0:	1ac02042 	lsl	w2, w2, w0
 4027ea4:	f2a22064 	movk	x4, #0x1103, lsl #16
 4027ea8:	b9400083 	ldr	w3, [x4]
 4027eac:	6a02007f 	tst	w3, w2
 4027eb0:	54ffffc0 	b.eq	4027ea8 <ipc_recv_msg+0x20>  // b.none
 4027eb4:	d29c0405 	mov	x5, #0xe020                	// #57376
 4027eb8:	d29c0483 	mov	x3, #0xe024                	// #57380
 4027ebc:	f2a22065 	movk	x5, #0x1103, lsl #16
 4027ec0:	f2a22063 	movk	x3, #0x1103, lsl #16
 4027ec4:	b94000a2 	ldr	w2, [x5]
 4027ec8:	b9000022 	str	w2, [x1]
 4027ecc:	b9400064 	ldr	w4, [x3]
 4027ed0:	b9000424 	str	w4, [x1, #4]
 4027ed4:	4a040042 	eor	w2, w2, w4
 4027ed8:	7100349f 	cmp	w4, #0xd
 4027edc:	54000308 	b.hi	4027f3c <ipc_recv_msg+0xb4>  // b.pmore
 4027ee0:	d2800023 	mov	x3, #0x1                   	// #1
 4027ee4:	91000463 	add	x3, x3, #0x1
 4027ee8:	51000866 	sub	w6, w3, #0x2
 4027eec:	6b0400df 	cmp	w6, w4
 4027ef0:	54000183 	b.cc	4027f20 <ipc_recv_msg+0x98>  // b.lo, b.ul, b.last
 4027ef4:	d29c0b83 	mov	x3, #0xe05c                	// #57436
 4027ef8:	f2a22063 	movk	x3, #0x1103, lsl #16
 4027efc:	b9400063 	ldr	w3, [x3]
 4027f00:	b9003c23 	str	w3, [x1, #60]
 4027f04:	6b03005f 	cmp	w2, w3
 4027f08:	d29c0082 	mov	x2, #0xe004                	// #57348
 4027f0c:	f2a22062 	movk	x2, #0x1103, lsl #16
 4027f10:	b9000040 	str	w0, [x2]
 4027f14:	54000100 	b.eq	4027f34 <ipc_recv_msg+0xac>  // b.none
 4027f18:	12800000 	mov	w0, #0xffffffff            	// #-1
 4027f1c:	14000007 	b	4027f38 <ipc_recv_msg+0xb0>
 4027f20:	d37ef466 	lsl	x6, x3, #2
 4027f24:	b86668a6 	ldr	w6, [x5, x6]
 4027f28:	b8237826 	str	w6, [x1, x3, lsl #2]
 4027f2c:	4a060042 	eor	w2, w2, w6
 4027f30:	17ffffed 	b	4027ee4 <ipc_recv_msg+0x5c>
 4027f34:	b9400420 	ldr	w0, [x1, #4]
 4027f38:	d65f03c0 	ret
 4027f3c:	d29c0081 	mov	x1, #0xe004                	// #57348
 4027f40:	f2a22061 	movk	x1, #0x1103, lsl #16
 4027f44:	b9000020 	str	w0, [x1]
 4027f48:	17fffff4 	b	4027f18 <ipc_recv_msg+0x90>

0000000004027f4c <delay_cl>:
 4027f4c:	53017c00 	lsr	w0, w0, #1
 4027f50:	35000040 	cbnz	w0, 4027f58 <delay_cl+0xc>
 4027f54:	d65f03c0 	ret
 4027f58:	d503201f 	nop
 4027f5c:	51000400 	sub	w0, w0, #0x1
 4027f60:	17fffffc 	b	4027f50 <delay_cl+0x4>

0000000004027f64 <get_ddr_scrub_and_gpll_switch>:
 4027f64:	d2802480 	mov	x0, #0x124                 	// #292
 4027f68:	f2a203c0 	movk	x0, #0x101e, lsl #16
 4027f6c:	b9400000 	ldr	w0, [x0]
 4027f70:	d3451400 	ubfx	x0, x0, #5, #1
 4027f74:	d65f03c0 	ret

0000000004027f78 <bsp_gpll_config>:
 4027f78:	a9bf7bf3 	stp	x19, x30, [sp, #-16]!
 4027f7c:	2a0003f3 	mov	w19, w0
 4027f80:	97fffff9 	bl	4027f64 <get_ddr_scrub_and_gpll_switch>
 4027f84:	12001c00 	and	w0, w0, #0xff
 4027f88:	7100041f 	cmp	w0, #0x1
 4027f8c:	54001341 	b.ne	40281f4 <bsp_gpll_config+0x27c>  // b.any
 4027f90:	d2800380 	mov	x0, #0x1c                  	// #28
 4027f94:	f2a203c0 	movk	x0, #0x101e, lsl #16
 4027f98:	b9400001 	ldr	w1, [x0]
 4027f9c:	d2840800 	mov	x0, #0x2040                	// #8256
 4027fa0:	f2a22020 	movk	x0, #0x1101, lsl #16
 4027fa4:	37c00261 	tbnz	w1, #24, 4027ff0 <bsp_gpll_config+0x78>
 4027fa8:	b9400001 	ldr	w1, [x0]
 4027fac:	12126421 	and	w1, w1, #0xffffc0ff
 4027fb0:	b9000001 	str	w1, [x0]
 4027fb4:	d2840001 	mov	x1, #0x2000                	// #8192
 4027fb8:	f2a22021 	movk	x1, #0x1101, lsl #16
 4027fbc:	b9400020 	ldr	w0, [x1]
 4027fc0:	12117000 	and	w0, w0, #0xffff8fff
 4027fc4:	32130400 	orr	w0, w0, #0x6000
 4027fc8:	b9000020 	str	w0, [x1]
 4027fcc:	52896f00 	mov	w0, #0x4b78                	// #19320
 4027fd0:	72b2d4a0 	movk	w0, #0x96a5, lsl #16
 4027fd4:	6b00027f 	cmp	w19, w0
 4027fd8:	54000141 	b.ne	4028000 <bsp_gpll_config+0x88>  // b.any
 4027fdc:	d287e801 	mov	x1, #0x3f40                	// #16192
 4027fe0:	f2a22021 	movk	x1, #0x1101, lsl #16
 4027fe4:	b9400020 	ldr	w0, [x1]
 4027fe8:	121b7800 	and	w0, w0, #0xffffffef
 4027fec:	14000057 	b	4028148 <bsp_gpll_config+0x1d0>
 4027ff0:	b9400001 	ldr	w1, [x0]
 4027ff4:	12126421 	and	w1, w1, #0xffffc0ff
 4027ff8:	b9000001 	str	w1, [x0]
 4027ffc:	17fffff4 	b	4027fcc <bsp_gpll_config+0x54>
 4028000:	529690e0 	mov	w0, #0xb487                	// #46215
 4028004:	72ad2b40 	movk	w0, #0x695a, lsl #16
 4028008:	6b00027f 	cmp	w19, w0
 402800c:	54000960 	b.eq	4028138 <bsp_gpll_config+0x1c0>  // b.none
 4028010:	52968f00 	mov	w0, #0xb478                	// #46200
 4028014:	72ad34a0 	movk	w0, #0x69a5, lsl #16
 4028018:	6b00027f 	cmp	w19, w0
 402801c:	540009a0 	b.eq	4028150 <bsp_gpll_config+0x1d8>  // b.none
 4028020:	d2806081 	mov	x1, #0x304                 	// #772
 4028024:	d2806004 	mov	x4, #0x300                 	// #768
 4028028:	d2806705 	mov	x5, #0x338                 	// #824
 402802c:	52800062 	mov	w2, #0x3                   	// #3
 4028030:	f2a22021 	movk	x1, #0x1101, lsl #16
 4028034:	f2a22024 	movk	x4, #0x1101, lsl #16
 4028038:	52a25006 	mov	w6, #0x12800000            	// #310378496
 402803c:	f2a22025 	movk	x5, #0x1101, lsl #16
 4028040:	52800280 	mov	w0, #0x14                  	// #20
 4028044:	97ffffc2 	bl	4027f4c <delay_cl>
 4028048:	b9400020 	ldr	w0, [x1]
 402804c:	52800203 	mov	w3, #0x10                  	// #16
 4028050:	320c0000 	orr	w0, w0, #0x100000
 4028054:	b9000020 	str	w0, [x1]
 4028058:	b9000086 	str	w6, [x4]
 402805c:	52800020 	mov	w0, #0x1                   	// #1
 4028060:	97ffffbb 	bl	4027f4c <delay_cl>
 4028064:	b9400020 	ldr	w0, [x1]
 4028068:	120b7800 	and	w0, w0, #0xffefffff
 402806c:	b9000020 	str	w0, [x1]
 4028070:	52800280 	mov	w0, #0x14                  	// #20
 4028074:	97ffffb6 	bl	4027f4c <delay_cl>
 4028078:	b94000a0 	ldr	w0, [x5]
 402807c:	372002c0 	tbnz	w0, #4, 40280d4 <bsp_gpll_config+0x15c>
 4028080:	52800020 	mov	w0, #0x1                   	// #1
 4028084:	97ffffb2 	bl	4027f4c <delay_cl>
 4028088:	71000463 	subs	w3, w3, #0x1
 402808c:	54ffff61 	b.ne	4028078 <bsp_gpll_config+0x100>  // b.any
 4028090:	71000442 	subs	w2, w2, #0x1
 4028094:	54fffda1 	b.ne	4028048 <bsp_gpll_config+0xd0>  // b.any
 4028098:	52968f00 	mov	w0, #0xb478                	// #46200
 402809c:	72ad34a0 	movk	w0, #0x69a5, lsl #16
 40280a0:	6b00027f 	cmp	w19, w0
 40280a4:	54000060 	b.eq	40280b0 <bsp_gpll_config+0x138>  // b.none
 40280a8:	52800b00 	mov	w0, #0x58                  	// #88
 40280ac:	97ffeff3 	bl	4024078 <err_print>
 40280b0:	d2800040 	mov	x0, #0x2                   	// #2
 40280b4:	97ffff28 	bl	4027d54 <mdelay>
 40280b8:	97ffff17 	bl	4027d14 <timer_deinit>
 40280bc:	d2800080 	mov	x0, #0x4                   	// #4
